; ModuleID = 'llvm-link'
source_filename = "llvm-link"
target datalayout = "e-m:e-i64:64-f80:128-n8:16:32:64-S128"
target triple = "x86_64-unknown-linux-gnu"

%"class.std::basic_ofstream" = type { %"class.std::basic_ostream.base", %"class.std::basic_filebuf", %"class.std::basic_ios" }
%"class.std::basic_ostream.base" = type { i32 (...)** }
%"class.std::basic_filebuf" = type { %"class.std::basic_streambuf", %union.pthread_mutex_t, %"class.std::__basic_file", i32, %struct.__mbstate_t, %struct.__mbstate_t, %struct.__mbstate_t, i8*, i64, i8, i8, i8, i8, i8*, i8*, i8, %"class.std::codecvt"*, i8*, i64, i8*, i8* }
%"class.std::basic_streambuf" = type { i32 (...)**, i8*, i8*, i8*, i8*, i8*, i8*, %"class.std::locale" }
%"class.std::locale" = type { %"class.std::locale::_Impl"* }
%"class.std::locale::_Impl" = type { i32, %"class.std::locale::facet"**, i64, %"class.std::locale::facet"**, i8** }
%"class.std::locale::facet" = type <{ i32 (...)**, i32, [4 x i8] }>
%union.pthread_mutex_t = type { %"struct.(anonymous union)::__pthread_mutex_s" }
%"struct.(anonymous union)::__pthread_mutex_s" = type { i32, i32, i32, i32, i32, i16, i16, %struct.__pthread_internal_list }
%struct.__pthread_internal_list = type { %struct.__pthread_internal_list*, %struct.__pthread_internal_list* }
%"class.std::__basic_file" = type <{ %struct._IO_FILE*, i8, [7 x i8] }>
%struct._IO_FILE = type { i32, i8*, i8*, i8*, i8*, i8*, i8*, i8*, i8*, i8*, i8*, i8*, %struct._IO_marker*, %struct._IO_FILE*, i32, i32, i64, i16, i8, [1 x i8], i8*, i64, i8*, i8*, i8*, i8*, i64, i32, [20 x i8] }
%struct._IO_marker = type { %struct._IO_marker*, %struct._IO_FILE*, i32 }
%struct.__mbstate_t = type { i32, %union.anon }
%union.anon = type { i32 }
%"class.std::codecvt" = type { %"class.std::__codecvt_abstract_base.base", %struct.__locale_struct* }
%"class.std::__codecvt_abstract_base.base" = type { %"class.std::locale::facet.base" }
%"class.std::locale::facet.base" = type <{ i32 (...)**, i32 }>
%struct.__locale_struct = type { [13 x %struct.__locale_data*], i16*, i32*, i32*, [13 x i8*] }
%struct.__locale_data = type opaque
%"class.std::basic_ios" = type { %"class.std::ios_base", %"class.std::basic_ostream"*, i8, i8, %"class.std::basic_streambuf"*, %"class.std::ctype"*, %"class.std::num_put"*, %"class.std::num_put"* }
%"class.std::ios_base" = type { i32 (...)**, i64, i64, i32, i32, i32, %"struct.std::ios_base::_Callback_list"*, %"struct.std::ios_base::_Words", [8 x %"struct.std::ios_base::_Words"], i32, %"struct.std::ios_base::_Words"*, %"class.std::locale" }
%"struct.std::ios_base::_Callback_list" = type { %"struct.std::ios_base::_Callback_list"*, void (i32, %"class.std::ios_base"*, i32)*, i32, i32 }
%"struct.std::ios_base::_Words" = type { i8*, i64 }
%"class.std::basic_ostream" = type { i32 (...)**, %"class.std::basic_ios" }
%"class.std::ctype" = type <{ %"class.std::locale::facet.base", [4 x i8], %struct.__locale_struct*, i8, [7 x i8], i32*, i32*, i16*, i8, [256 x i8], [256 x i8], i8, [6 x i8] }>
%"class.std::num_put" = type { %"class.std::locale::facet.base", [4 x i8] }
%"class.std::ios_base::Init" = type { i8 }
%struct.ident_t = type { i32, i32, i32, i32, i8* }
%"class.std::basic_string" = type { %"struct.std::basic_string<char, std::char_traits<char>, std::allocator<char> >::_Alloc_hider" }
%"struct.std::basic_string<char, std::char_traits<char>, std::allocator<char> >::_Alloc_hider" = type { i8* }
%"class.std::basic_ostringstream" = type { %"class.std::basic_ostream.base", %"class.std::basic_stringbuf", %"class.std::basic_ios" }
%"class.std::basic_stringbuf" = type { %"class.std::basic_streambuf", i32, %"class.std::basic_string" }
%"struct.std::basic_string<char, std::char_traits<char>, std::allocator<char> >::_Rep" = type { %"struct.std::basic_string<char, std::char_traits<char>, std::allocator<char> >::_Rep_base" }
%"struct.std::basic_string<char, std::char_traits<char>, std::allocator<char> >::_Rep_base" = type { i64, i64, i32 }
%struct.__va_list_tag = type { i32, i32, i8*, i8* }
%class.csc_graph = type { i32, i32, i32*, i32*, i32* }
%"class.std::basic_fstream" = type { %"class.std::basic_iostream.base", %"class.std::basic_filebuf", %"class.std::basic_ios" }
%"class.std::basic_iostream.base" = type { %"class.std::basic_istream.base", %"class.std::basic_ostream.base" }
%"class.std::basic_istream.base" = type { i32 (...)**, i64 }
%"class.std::basic_istream" = type { i32 (...)**, i64, %"class.std::basic_ios" }
%"class.std::basic_ifstream" = type { %"class.std::basic_istream.base", %"class.std::basic_filebuf", %"class.std::basic_ios" }

$__clang_call_terminate = comdat any

@f1 = dso_local global [1024 x %"class.std::basic_ofstream"] zeroinitializer, align 16
@f2 = dso_local global [1024 x %"class.std::basic_ofstream"] zeroinitializer, align 16
@f3 = dso_local global [1024 x %"class.std::basic_ofstream"] zeroinitializer, align 16
@expert_mode = dso_local local_unnamed_addr global i8 0, align 1
@remaining_mem_accesses = dso_local local_unnamed_addr global i64 130000000, align 8
@llvm.global_ctors = appending global [2 x { i32, void ()*, i8* }] [{ i32, void ()*, i8* } { i32 65535, void ()* @_GLOBAL__sub_I_tracer.cc, i8* null }, { i32, void ()*, i8* } { i32 65535, void ()* @_GLOBAL__sub_I_decoupled_visited.cpp, i8* null }]
@_ZStL8__ioinit = internal global %"class.std::ios_base::Init" zeroinitializer, align 1
@__dso_handle = external hidden global i8
@.str.18 = private unnamed_addr constant [14 x i8] c"MOSAIC_EXPERT\00", align 1
@_ZSt4cout = external dso_local global %"class.std::basic_ostream", align 8
@.str = private unnamed_addr constant [72 x i8] c"ERROR: Unable to log for all threads! Increase MAX_THREADS in tracer.cc\00", align 1
@.str.1 = private unnamed_addr constant [2 x i8] c"\0A\00", align 1
@.str.2 = private unnamed_addr constant [2 x i8] c"0\00", align 1
@.str.3 = private unnamed_addr constant [10 x i8] c"tracer.cc\00", align 1
@__PRETTY_FUNCTION__._Z12get_dir_nameSsSsSs = private unnamed_addr constant [64 x i8] c"std::string get_dir_name(std::string, std::string, std::string)\00", align 1
@.str.4 = private unnamed_addr constant [9 x i8] c"/output_\00", align 1
@.str.5 = private unnamed_addr constant [2 x i8] c"_\00", align 1
@.str.6 = private unnamed_addr constant [2 x i8] c"/\00", align 1
@_ZTTSt19basic_ostringstreamIcSt11char_traitsIcESaIcEE = external unnamed_addr constant [4 x i8*], align 8
@_ZTVSt15basic_stringbufIcSt11char_traitsIcESaIcEE = external dso_local unnamed_addr constant { [16 x i8*] }, align 8
@_ZNSs4_Rep20_S_empty_rep_storageE = external dso_local global [0 x i64], align 8
@_ZTVSt15basic_streambufIcSt11char_traitsIcEE = external dso_local unnamed_addr constant { [16 x i8*] }, align 8
@.str.7 = private unnamed_addr constant [9 x i8] c"ctrl.txt\00", align 1
@.str.8 = private unnamed_addr constant [3 x i8] c"B,\00", align 1
@.str.9 = private unnamed_addr constant [2 x i8] c",\00", align 1
@.str.10 = private unnamed_addr constant [6 x i8] c"false\00", align 1
@__PRETTY_FUNCTION__.printuBranch = private unnamed_addr constant [50 x i8] c"void printuBranch(char *, char *, char *, char *)\00", align 1
@.str.11 = private unnamed_addr constant [3 x i8] c"U,\00", align 1
@.str.12 = private unnamed_addr constant [66 x i8] c"Memory trace exceeded max num of memory accesses. \0A Aborting... \0A\00", align 1
@__PRETTY_FUNCTION__.printMem = private unnamed_addr constant [60 x i8] c"void printMem(char *, char *, char *, bool, long long, int)\00", align 1
@.str.13 = private unnamed_addr constant [8 x i8] c"mem.txt\00", align 1
@.str.14 = private unnamed_addr constant [3 x i8] c"L,\00", align 1
@.str.15 = private unnamed_addr constant [3 x i8] c"S,\00", align 1
@.str.16 = private unnamed_addr constant [8 x i8] c"acc.txt\00", align 1
@.str.26 = private unnamed_addr constant [74 x i8] c"vector::_M_range_check: __n (which is %zu) >= this->size() (which is %zu)\00", align 1
@.gomp_critical_user_.var = common global [8 x i32] zeroinitializer
@_ZStL8__ioinit.2 = internal global %"class.std::ios_base::Init" zeroinitializer, align 1
@0 = private unnamed_addr global %struct.ident_t { i32 0, i32 2, i32 0, i32 0, i8* getelementptr inbounds ([23 x i8], [23 x i8]* @.str.17, i32 0, i32 0) }, align 8
@1 = private unnamed_addr global %struct.ident_t { i32 0, i32 34, i32 0, i32 0, i8* getelementptr inbounds ([23 x i8], [23 x i8]* @.str.17, i32 0, i32 0) }, align 8
@.str.17 = private unnamed_addr constant [23 x i8] c";unknown;unknown;0;0;;\00", align 1
@str = private unnamed_addr constant [22 x i8] c"converting csr to csc\00", align 1
@.str.7.18 = private unnamed_addr constant [13 x i8] c"duplicates: \00", align 1
@.str.2.19 = private unnamed_addr constant [2 x i8] c"0\00", align 1
@.str.3.20 = private unnamed_addr constant [10 x i8] c"./graph.h\00", align 1
@__PRETTY_FUNCTION__._Z18convert_csr_to_csc9csr_graph = private unnamed_addr constant [40 x i8] c"csc_graph convert_csr_to_csc(csr_graph)\00", align 1
@.str.4.21 = private unnamed_addr constant [2 x i8] c" \00", align 1
@.str.6.22 = private unnamed_addr constant [23 x i8] c"edge_index >= previous\00", align 1
@.str.8.23 = private unnamed_addr constant [41 x i8] c"incoming_edges[ret.nodes-1] == ret.edges\00", align 1
@.str.10.24 = private unnamed_addr constant [32 x i8] c"Converting graph elapsed time: \00", align 1
@.str.11.25 = private unnamed_addr constant [3 x i8] c"s\0A\00", align 1
@.str.9.26 = private unnamed_addr constant [24 x i8] c"ret.edge_array[e] != -1\00", align 1
@.str.12.27 = private unnamed_addr constant [8 x i8] c"graph: \00", align 1
@.str.13.28 = private unnamed_addr constant [9 x i8] c"\0Aedges: \00", align 1
@.str.14.29 = private unnamed_addr constant [15 x i8] c"\0Agraph_nodes: \00", align 1
@.str.15.30 = private unnamed_addr constant [3 x i8] c"\0A\0A\00", align 1
@.str.16.31 = private unnamed_addr constant [26 x i8] c"reading %% %.2f finished\0D\00", align 1
@stdout = external dso_local local_unnamed_addr global %struct._IO_FILE*, align 8
@.str.17.32 = private unnamed_addr constant [28 x i8] c"reading %% 100.00 finished\0A\00", align 1
@.str.18.33 = private unnamed_addr constant [29 x i8] c"Reading graph elapsed time: \00", align 1
@_ZTTSt13basic_fstreamIcSt11char_traitsIcEE = external unnamed_addr constant [10 x i8*], align 8
@.str.19 = private unnamed_addr constant [20 x i8] c"num_nodes_edges.txt\00", align 1
@.str.20 = private unnamed_addr constant [7 x i8] c"found \00", align 1
@.str.21 = private unnamed_addr constant [2 x i8] c"\0A\00", align 1
@.str.22 = private unnamed_addr constant [15 x i8] c"node_array.bin\00", align 1
@.str.23 = private unnamed_addr constant [19 x i8] c"no node array file\00", align 1
@.str.24 = private unnamed_addr constant [11 x i8] c"./common.h\00", align 1
@__PRETTY_FUNCTION__._Z15parse_bin_filesSs = private unnamed_addr constant [39 x i8] c"csr_graph parse_bin_files(std::string)\00", align 1
@.str.25 = private unnamed_addr constant [28 x i8] c"byte length of node array: \00", align 1
@.str.26.34 = private unnamed_addr constant [28 x i8] c"reading byte length of:    \00", align 1
@.str.27 = private unnamed_addr constant [15 x i8] c"edge_array.bin\00", align 1
@.str.28 = private unnamed_addr constant [19 x i8] c"no edge array file\00", align 1
@.str.29 = private unnamed_addr constant [28 x i8] c"byte length of edge array: \00", align 1
@.str.30 = private unnamed_addr constant [16 x i8] c"edge_values.bin\00", align 1
@.str.31 = private unnamed_addr constant [20 x i8] c"no edge values file\00", align 1
@2 = private unnamed_addr constant [2 x i8] c"0\00", align 1
@3 = private unnamed_addr constant [8 x i8] c"compute\00", align 1
@4 = private unnamed_addr constant [27 x i8] c"decades_decoupled_implicit\00", align 1
@5 = private unnamed_addr constant [2 x i8] c"9\00", align 1
@6 = private unnamed_addr constant [2 x i8] c"1\00", align 1
@7 = private unnamed_addr constant [2 x i8] c"1\00", align 1
@8 = private unnamed_addr constant [8 x i8] c"compute\00", align 1
@9 = private unnamed_addr constant [27 x i8] c"decades_decoupled_implicit\00", align 1
@10 = private unnamed_addr constant [2 x i8] c"2\00", align 1
@11 = private unnamed_addr constant [2 x i8] c"2\00", align 1
@12 = private unnamed_addr constant [8 x i8] c"compute\00", align 1
@13 = private unnamed_addr constant [27 x i8] c"decades_decoupled_implicit\00", align 1
@14 = private unnamed_addr constant [2 x i8] c"8\00", align 1
@15 = private unnamed_addr constant [2 x i8] c"3\00", align 1
@16 = private unnamed_addr constant [2 x i8] c"3\00", align 1
@17 = private unnamed_addr constant [8 x i8] c"compute\00", align 1
@18 = private unnamed_addr constant [27 x i8] c"decades_decoupled_implicit\00", align 1
@19 = private unnamed_addr constant [2 x i8] c"8\00", align 1
@20 = private unnamed_addr constant [2 x i8] c"4\00", align 1
@21 = private unnamed_addr constant [2 x i8] c"4\00", align 1
@22 = private unnamed_addr constant [8 x i8] c"compute\00", align 1
@23 = private unnamed_addr constant [27 x i8] c"decades_decoupled_implicit\00", align 1
@24 = private unnamed_addr constant [2 x i8] c"5\00", align 1
@25 = private unnamed_addr constant [2 x i8] c"5\00", align 1
@26 = private unnamed_addr constant [8 x i8] c"compute\00", align 1
@27 = private unnamed_addr constant [27 x i8] c"decades_decoupled_implicit\00", align 1
@28 = private unnamed_addr constant [2 x i8] c"7\00", align 1
@29 = private unnamed_addr constant [2 x i8] c"6\00", align 1
@30 = private unnamed_addr constant [3 x i8] c"32\00", align 1
@31 = private unnamed_addr constant [8 x i8] c"compute\00", align 1
@32 = private unnamed_addr constant [27 x i8] c"decades_decoupled_implicit\00", align 1
@33 = private unnamed_addr constant [2 x i8] c"6\00", align 1
@34 = private unnamed_addr constant [8 x i8] c"compute\00", align 1
@35 = private unnamed_addr constant [27 x i8] c"decades_decoupled_implicit\00", align 1
@36 = private unnamed_addr constant [2 x i8] c"7\00", align 1
@37 = private unnamed_addr constant [2 x i8] c"7\00", align 1
@38 = private unnamed_addr constant [8 x i8] c"compute\00", align 1
@39 = private unnamed_addr constant [27 x i8] c"decades_decoupled_implicit\00", align 1
@40 = private unnamed_addr constant [2 x i8] c"8\00", align 1
@41 = private unnamed_addr constant [2 x i8] c"5\00", align 1
@42 = private unnamed_addr constant [2 x i8] c"8\00", align 1
@43 = private unnamed_addr constant [8 x i8] c"compute\00", align 1
@44 = private unnamed_addr constant [27 x i8] c"decades_decoupled_implicit\00", align 1
@45 = private unnamed_addr constant [2 x i8] c"9\00", align 1
@46 = private unnamed_addr constant [2 x i8] c"2\00", align 1
@47 = private unnamed_addr constant [2 x i8] c"0\00", align 1
@48 = private unnamed_addr constant [7 x i8] c"supply\00", align 1
@49 = private unnamed_addr constant [27 x i8] c"decades_decoupled_implicit\00", align 1
@50 = private unnamed_addr constant [2 x i8] c"9\00", align 1
@51 = private unnamed_addr constant [2 x i8] c"1\00", align 1
@52 = private unnamed_addr constant [2 x i8] c"4\00", align 1
@53 = private unnamed_addr constant [7 x i8] c"supply\00", align 1
@54 = private unnamed_addr constant [27 x i8] c"decades_decoupled_implicit\00", align 1
@55 = private unnamed_addr constant [2 x i8] c"7\00", align 1
@56 = private unnamed_addr constant [7 x i8] c"supply\00", align 1
@57 = private unnamed_addr constant [27 x i8] c"decades_decoupled_implicit\00", align 1
@58 = private unnamed_addr constant [2 x i8] c"1\00", align 1
@59 = private unnamed_addr constant [7 x i8] c"supply\00", align 1
@60 = private unnamed_addr constant [27 x i8] c"decades_decoupled_implicit\00", align 1
@61 = private unnamed_addr constant [2 x i8] c"2\00", align 1
@62 = private unnamed_addr constant [3 x i8] c"16\00", align 1
@63 = private unnamed_addr constant [7 x i8] c"supply\00", align 1
@64 = private unnamed_addr constant [27 x i8] c"decades_decoupled_implicit\00", align 1
@65 = private unnamed_addr constant [2 x i8] c"2\00", align 1
@66 = private unnamed_addr constant [7 x i8] c"supply\00", align 1
@67 = private unnamed_addr constant [27 x i8] c"decades_decoupled_implicit\00", align 1
@68 = private unnamed_addr constant [2 x i8] c"8\00", align 1
@69 = private unnamed_addr constant [2 x i8] c"3\00", align 1
@70 = private unnamed_addr constant [3 x i8] c"21\00", align 1
@71 = private unnamed_addr constant [7 x i8] c"supply\00", align 1
@72 = private unnamed_addr constant [27 x i8] c"decades_decoupled_implicit\00", align 1
@73 = private unnamed_addr constant [3 x i8] c"25\00", align 1
@74 = private unnamed_addr constant [7 x i8] c"supply\00", align 1
@75 = private unnamed_addr constant [27 x i8] c"decades_decoupled_implicit\00", align 1
@76 = private unnamed_addr constant [2 x i8] c"3\00", align 1
@77 = private unnamed_addr constant [7 x i8] c"supply\00", align 1
@78 = private unnamed_addr constant [27 x i8] c"decades_decoupled_implicit\00", align 1
@79 = private unnamed_addr constant [2 x i8] c"8\00", align 1
@80 = private unnamed_addr constant [2 x i8] c"4\00", align 1
@81 = private unnamed_addr constant [2 x i8] c"4\00", align 1
@82 = private unnamed_addr constant [7 x i8] c"supply\00", align 1
@83 = private unnamed_addr constant [27 x i8] c"decades_decoupled_implicit\00", align 1
@84 = private unnamed_addr constant [2 x i8] c"5\00", align 1
@85 = private unnamed_addr constant [3 x i8] c"41\00", align 1
@86 = private unnamed_addr constant [7 x i8] c"supply\00", align 1
@87 = private unnamed_addr constant [27 x i8] c"decades_decoupled_implicit\00", align 1
@88 = private unnamed_addr constant [3 x i8] c"45\00", align 1
@89 = private unnamed_addr constant [7 x i8] c"supply\00", align 1
@90 = private unnamed_addr constant [27 x i8] c"decades_decoupled_implicit\00", align 1
@91 = private unnamed_addr constant [2 x i8] c"5\00", align 1
@92 = private unnamed_addr constant [7 x i8] c"supply\00", align 1
@93 = private unnamed_addr constant [27 x i8] c"decades_decoupled_implicit\00", align 1
@94 = private unnamed_addr constant [2 x i8] c"7\00", align 1
@95 = private unnamed_addr constant [2 x i8] c"6\00", align 1
@96 = private unnamed_addr constant [7 x i8] c"supply\00", align 1
@97 = private unnamed_addr constant [27 x i8] c"decades_decoupled_implicit\00", align 1
@98 = private unnamed_addr constant [2 x i8] c"7\00", align 1
@99 = private unnamed_addr constant [2 x i8] c"7\00", align 1
@100 = private unnamed_addr constant [7 x i8] c"supply\00", align 1
@101 = private unnamed_addr constant [27 x i8] c"decades_decoupled_implicit\00", align 1
@102 = private unnamed_addr constant [2 x i8] c"8\00", align 1
@103 = private unnamed_addr constant [2 x i8] c"5\00", align 1
@104 = private unnamed_addr constant [2 x i8] c"8\00", align 1
@105 = private unnamed_addr constant [7 x i8] c"supply\00", align 1
@106 = private unnamed_addr constant [27 x i8] c"decades_decoupled_implicit\00", align 1
@107 = private unnamed_addr constant [2 x i8] c"9\00", align 1
@108 = private unnamed_addr constant [2 x i8] c"2\00", align 1
@.str.32 = private unnamed_addr constant [16 x i8] c"-- epoch %d %d\0A\00", align 1
@.str.33 = private unnamed_addr constant [66 x i8] c"----going into kernel! Computing minimum of %d edges or %d nodes\0A\00", align 1
@.str.34 = private unnamed_addr constant [27 x i8] c"\0Akernel computation time: \00", align 1
@str.40 = private unnamed_addr constant [21 x i8] c"----finished kernel!\00", align 1
@.str.36 = private unnamed_addr constant [10 x i8] c"argc >= 2\00", align 1
@.str.37 = private unnamed_addr constant [12 x i8] c"decoupled.c\00", align 1
@__PRETTY_FUNCTION__.main = private unnamed_addr constant [23 x i8] c"int main(int, char **)\00", align 1
@str.41 = private unnamed_addr constant [18 x i8] c"\0A\0Astarting kernel\00", align 1
@.str.39 = private unnamed_addr constant [15 x i8] c"\0Aending kernel\00", align 1

; Function Attrs: uwtable
define internal void @_GLOBAL__sub_I_tracer.cc() #0 section ".text.startup" personality i32 (...)* @__gxx_personality_v0 {
entry:
  tail call void @_ZNSt8ios_base4InitC1Ev(%"class.std::ios_base::Init"* nonnull @_ZStL8__ioinit)
  %0 = tail call i32 @__cxa_atexit(void (i8*)* bitcast (void (%"class.std::ios_base::Init"*)* @_ZNSt8ios_base4InitD1Ev to void (i8*)*), i8* getelementptr inbounds (%"class.std::ios_base::Init", %"class.std::ios_base::Init"* @_ZStL8__ioinit, i64 0, i32 0), i8* nonnull @__dso_handle) #3
  %call.i = tail call i8* @getenv(i8* getelementptr inbounds ([14 x i8], [14 x i8]* @.str.18, i64 0, i64 0)) #3
  %cmp.i = icmp ne i8* %call.i, null
  %frombool.i = zext i1 %cmp.i to i8
  store i8 %frombool.i, i8* @expert_mode, align 1, !tbaa !2
  br label %arrayctor.loop.i

arrayctor.loop.i:                                 ; preds = %invoke.cont.i, %entry
  %arrayctor.cur.idx.i = phi i64 [ 0, %entry ], [ %arrayctor.cur.add.i, %invoke.cont.i ]
  %arrayctor.cur.ptr.i = getelementptr inbounds [1024 x %"class.std::basic_ofstream"], [1024 x %"class.std::basic_ofstream"]* @f1, i64 0, i64 %arrayctor.cur.idx.i
  invoke void @_ZNSt14basic_ofstreamIcSt11char_traitsIcEEC1Ev(%"class.std::basic_ofstream"* nonnull %arrayctor.cur.ptr.i)
          to label %invoke.cont.i unwind label %lpad.i

invoke.cont.i:                                    ; preds = %arrayctor.loop.i
  %arrayctor.cur.add.i = add nuw nsw i64 %arrayctor.cur.idx.i, 1
  %arrayctor.done.i = icmp eq i64 %arrayctor.cur.add.i, 1024
  br i1 %arrayctor.done.i, label %__cxx_global_var_init.19.exit, label %arrayctor.loop.i

lpad.i:                                           ; preds = %arrayctor.loop.i
  %1 = landingpad { i8*, i32 }
          cleanup
  %arraydestroy.isempty.i = icmp eq i64 %arrayctor.cur.idx.i, 0
  br i1 %arraydestroy.isempty.i, label %eh.resume.i, label %lpad.split.i

lpad.split.i:                                     ; preds = %lpad.i
  %arraydestroy.element3.i = getelementptr inbounds %"class.std::basic_ofstream", %"class.std::basic_ofstream"* %arrayctor.cur.ptr.i, i64 -1
  tail call void @_ZNSt14basic_ofstreamIcSt11char_traitsIcEED1Ev(%"class.std::basic_ofstream"* nonnull %arraydestroy.element3.i) #3
  %arraydestroy.done7.i = icmp eq %"class.std::basic_ofstream"* %arraydestroy.element3.i, getelementptr inbounds ([1024 x %"class.std::basic_ofstream"], [1024 x %"class.std::basic_ofstream"]* @f1, i64 0, i64 0)
  br i1 %arraydestroy.done7.i, label %eh.resume.i, label %arraydestroy.body.split.i

arraydestroy.body.split.i:                        ; preds = %arraydestroy.body.split.i, %lpad.split.i
  %2 = phi %"class.std::basic_ofstream"* [ %arraydestroy.element4.i, %arraydestroy.body.split.i ], [ %arraydestroy.element3.i, %lpad.split.i ]
  %arraydestroy.element4.i = getelementptr inbounds %"class.std::basic_ofstream", %"class.std::basic_ofstream"* %2, i64 -1
  tail call void @_ZNSt14basic_ofstreamIcSt11char_traitsIcEED1Ev(%"class.std::basic_ofstream"* nonnull %arraydestroy.element4.i) #3
  %arraydestroy.done.i = icmp eq %"class.std::basic_ofstream"* %arraydestroy.element4.i, getelementptr inbounds ([1024 x %"class.std::basic_ofstream"], [1024 x %"class.std::basic_ofstream"]* @f1, i64 0, i64 0)
  br i1 %arraydestroy.done.i, label %eh.resume.i, label %arraydestroy.body.split.i

eh.resume.i:                                      ; preds = %arraydestroy.body.split.i, %lpad.split.i, %lpad.i
  resume { i8*, i32 } %1

__cxx_global_var_init.19.exit:                    ; preds = %invoke.cont.i
  %3 = tail call i32 @__cxa_atexit(void (i8*)* nonnull @__cxx_global_array_dtor, i8* null, i8* nonnull @__dso_handle) #3
  br label %arrayctor.loop.i3

arrayctor.loop.i3:                                ; preds = %invoke.cont.i6, %__cxx_global_var_init.19.exit
  %arrayctor.cur.idx.i1 = phi i64 [ 0, %__cxx_global_var_init.19.exit ], [ %arrayctor.cur.add.i4, %invoke.cont.i6 ]
  %arrayctor.cur.ptr.i2 = getelementptr inbounds [1024 x %"class.std::basic_ofstream"], [1024 x %"class.std::basic_ofstream"]* @f2, i64 0, i64 %arrayctor.cur.idx.i1
  invoke void @_ZNSt14basic_ofstreamIcSt11char_traitsIcEEC1Ev(%"class.std::basic_ofstream"* nonnull %arrayctor.cur.ptr.i2)
          to label %invoke.cont.i6 unwind label %lpad.i8

invoke.cont.i6:                                   ; preds = %arrayctor.loop.i3
  %arrayctor.cur.add.i4 = add nuw nsw i64 %arrayctor.cur.idx.i1, 1
  %arrayctor.done.i5 = icmp eq i64 %arrayctor.cur.add.i4, 1024
  br i1 %arrayctor.done.i5, label %__cxx_global_var_init.20.exit, label %arrayctor.loop.i3

lpad.i8:                                          ; preds = %arrayctor.loop.i3
  %4 = landingpad { i8*, i32 }
          cleanup
  %arraydestroy.isempty.i7 = icmp eq i64 %arrayctor.cur.idx.i1, 0
  br i1 %arraydestroy.isempty.i7, label %eh.resume.i15, label %lpad.split.i11

lpad.split.i11:                                   ; preds = %lpad.i8
  %arraydestroy.element3.i9 = getelementptr inbounds %"class.std::basic_ofstream", %"class.std::basic_ofstream"* %arrayctor.cur.ptr.i2, i64 -1
  tail call void @_ZNSt14basic_ofstreamIcSt11char_traitsIcEED1Ev(%"class.std::basic_ofstream"* nonnull %arraydestroy.element3.i9) #3
  %arraydestroy.done7.i10 = icmp eq %"class.std::basic_ofstream"* %arraydestroy.element3.i9, getelementptr inbounds ([1024 x %"class.std::basic_ofstream"], [1024 x %"class.std::basic_ofstream"]* @f2, i64 0, i64 0)
  br i1 %arraydestroy.done7.i10, label %eh.resume.i15, label %arraydestroy.body.split.i14

arraydestroy.body.split.i14:                      ; preds = %arraydestroy.body.split.i14, %lpad.split.i11
  %5 = phi %"class.std::basic_ofstream"* [ %arraydestroy.element4.i12, %arraydestroy.body.split.i14 ], [ %arraydestroy.element3.i9, %lpad.split.i11 ]
  %arraydestroy.element4.i12 = getelementptr inbounds %"class.std::basic_ofstream", %"class.std::basic_ofstream"* %5, i64 -1
  tail call void @_ZNSt14basic_ofstreamIcSt11char_traitsIcEED1Ev(%"class.std::basic_ofstream"* nonnull %arraydestroy.element4.i12) #3
  %arraydestroy.done.i13 = icmp eq %"class.std::basic_ofstream"* %arraydestroy.element4.i12, getelementptr inbounds ([1024 x %"class.std::basic_ofstream"], [1024 x %"class.std::basic_ofstream"]* @f2, i64 0, i64 0)
  br i1 %arraydestroy.done.i13, label %eh.resume.i15, label %arraydestroy.body.split.i14

eh.resume.i15:                                    ; preds = %arraydestroy.body.split.i14, %lpad.split.i11, %lpad.i8
  resume { i8*, i32 } %4

__cxx_global_var_init.20.exit:                    ; preds = %invoke.cont.i6
  %6 = tail call i32 @__cxa_atexit(void (i8*)* nonnull @__cxx_global_array_dtor.21, i8* null, i8* nonnull @__dso_handle) #3
  br label %arrayctor.loop.i18

arrayctor.loop.i18:                               ; preds = %invoke.cont.i21, %__cxx_global_var_init.20.exit
  %arrayctor.cur.idx.i16 = phi i64 [ 0, %__cxx_global_var_init.20.exit ], [ %arrayctor.cur.add.i19, %invoke.cont.i21 ]
  %arrayctor.cur.ptr.i17 = getelementptr inbounds [1024 x %"class.std::basic_ofstream"], [1024 x %"class.std::basic_ofstream"]* @f3, i64 0, i64 %arrayctor.cur.idx.i16
  invoke void @_ZNSt14basic_ofstreamIcSt11char_traitsIcEEC1Ev(%"class.std::basic_ofstream"* nonnull %arrayctor.cur.ptr.i17)
          to label %invoke.cont.i21 unwind label %lpad.i23

invoke.cont.i21:                                  ; preds = %arrayctor.loop.i18
  %arrayctor.cur.add.i19 = add nuw nsw i64 %arrayctor.cur.idx.i16, 1
  %arrayctor.done.i20 = icmp eq i64 %arrayctor.cur.add.i19, 1024
  br i1 %arrayctor.done.i20, label %__cxx_global_var_init.22.exit, label %arrayctor.loop.i18

lpad.i23:                                         ; preds = %arrayctor.loop.i18
  %7 = landingpad { i8*, i32 }
          cleanup
  %arraydestroy.isempty.i22 = icmp eq i64 %arrayctor.cur.idx.i16, 0
  br i1 %arraydestroy.isempty.i22, label %eh.resume.i30, label %lpad.split.i26

lpad.split.i26:                                   ; preds = %lpad.i23
  %arraydestroy.element3.i24 = getelementptr inbounds %"class.std::basic_ofstream", %"class.std::basic_ofstream"* %arrayctor.cur.ptr.i17, i64 -1
  tail call void @_ZNSt14basic_ofstreamIcSt11char_traitsIcEED1Ev(%"class.std::basic_ofstream"* nonnull %arraydestroy.element3.i24) #3
  %arraydestroy.done7.i25 = icmp eq %"class.std::basic_ofstream"* %arraydestroy.element3.i24, getelementptr inbounds ([1024 x %"class.std::basic_ofstream"], [1024 x %"class.std::basic_ofstream"]* @f3, i64 0, i64 0)
  br i1 %arraydestroy.done7.i25, label %eh.resume.i30, label %arraydestroy.body.split.i29

arraydestroy.body.split.i29:                      ; preds = %arraydestroy.body.split.i29, %lpad.split.i26
  %8 = phi %"class.std::basic_ofstream"* [ %arraydestroy.element4.i27, %arraydestroy.body.split.i29 ], [ %arraydestroy.element3.i24, %lpad.split.i26 ]
  %arraydestroy.element4.i27 = getelementptr inbounds %"class.std::basic_ofstream", %"class.std::basic_ofstream"* %8, i64 -1
  tail call void @_ZNSt14basic_ofstreamIcSt11char_traitsIcEED1Ev(%"class.std::basic_ofstream"* nonnull %arraydestroy.element4.i27) #3
  %arraydestroy.done.i28 = icmp eq %"class.std::basic_ofstream"* %arraydestroy.element4.i27, getelementptr inbounds ([1024 x %"class.std::basic_ofstream"], [1024 x %"class.std::basic_ofstream"]* @f3, i64 0, i64 0)
  br i1 %arraydestroy.done.i28, label %eh.resume.i30, label %arraydestroy.body.split.i29

eh.resume.i30:                                    ; preds = %arraydestroy.body.split.i29, %lpad.split.i26, %lpad.i23
  resume { i8*, i32 } %7

__cxx_global_var_init.22.exit:                    ; preds = %invoke.cont.i21
  %9 = tail call i32 @__cxa_atexit(void (i8*)* nonnull @__cxx_global_array_dtor.23, i8* null, i8* nonnull @__dso_handle) #3
  ret void
}

declare dso_local i32 @__gxx_personality_v0(...)

declare dso_local void @_ZNSt8ios_base4InitC1Ev(%"class.std::ios_base::Init"*) unnamed_addr #1

; Function Attrs: nounwind
declare dso_local void @_ZNSt8ios_base4InitD1Ev(%"class.std::ios_base::Init"*) unnamed_addr #2

; Function Attrs: nounwind
declare dso_local i32 @__cxa_atexit(void (i8*)*, i8*, i8*) local_unnamed_addr #3

; Function Attrs: nounwind readonly
declare dso_local i8* @getenv(i8* nocapture) local_unnamed_addr #4

; Function Attrs: uwtable
declare dso_local void @_ZNSt14basic_ofstreamIcSt11char_traitsIcEEC1Ev(%"class.std::basic_ofstream"*) unnamed_addr #0 align 2

; Function Attrs: nounwind uwtable
declare dso_local void @_ZNSt14basic_ofstreamIcSt11char_traitsIcEED1Ev(%"class.std::basic_ofstream"*) unnamed_addr #5 align 2

; Function Attrs: nounwind uwtable
define internal void @__cxx_global_array_dtor(i8* nocapture readnone) #5 section ".text.startup" {
entry:
  tail call void @_ZNSt14basic_ofstreamIcSt11char_traitsIcEED1Ev(%"class.std::basic_ofstream"* getelementptr inbounds ([1024 x %"class.std::basic_ofstream"], [1024 x %"class.std::basic_ofstream"]* @f1, i64 0, i64 1023)) #3
  br label %arraydestroy.body.split

arraydestroy.body.split:                          ; preds = %arraydestroy.body.split, %entry
  %1 = phi %"class.std::basic_ofstream"* [ getelementptr inbounds ([1024 x %"class.std::basic_ofstream"], [1024 x %"class.std::basic_ofstream"]* @f1, i64 0, i64 1023), %entry ], [ %arraydestroy.element3, %arraydestroy.body.split ]
  %arraydestroy.element3 = getelementptr inbounds %"class.std::basic_ofstream", %"class.std::basic_ofstream"* %1, i64 -1
  tail call void @_ZNSt14basic_ofstreamIcSt11char_traitsIcEED1Ev(%"class.std::basic_ofstream"* nonnull %arraydestroy.element3) #3
  %arraydestroy.done = icmp eq %"class.std::basic_ofstream"* %arraydestroy.element3, getelementptr inbounds ([1024 x %"class.std::basic_ofstream"], [1024 x %"class.std::basic_ofstream"]* @f1, i64 0, i64 0)
  br i1 %arraydestroy.done, label %arraydestroy.done1, label %arraydestroy.body.split

arraydestroy.done1:                               ; preds = %arraydestroy.body.split
  ret void
}

; Function Attrs: nounwind uwtable
define internal void @__cxx_global_array_dtor.21(i8* nocapture readnone) #5 section ".text.startup" {
entry:
  tail call void @_ZNSt14basic_ofstreamIcSt11char_traitsIcEED1Ev(%"class.std::basic_ofstream"* getelementptr inbounds ([1024 x %"class.std::basic_ofstream"], [1024 x %"class.std::basic_ofstream"]* @f2, i64 0, i64 1023)) #3
  br label %arraydestroy.body.split

arraydestroy.body.split:                          ; preds = %arraydestroy.body.split, %entry
  %1 = phi %"class.std::basic_ofstream"* [ getelementptr inbounds ([1024 x %"class.std::basic_ofstream"], [1024 x %"class.std::basic_ofstream"]* @f2, i64 0, i64 1023), %entry ], [ %arraydestroy.element3, %arraydestroy.body.split ]
  %arraydestroy.element3 = getelementptr inbounds %"class.std::basic_ofstream", %"class.std::basic_ofstream"* %1, i64 -1
  tail call void @_ZNSt14basic_ofstreamIcSt11char_traitsIcEED1Ev(%"class.std::basic_ofstream"* nonnull %arraydestroy.element3) #3
  %arraydestroy.done = icmp eq %"class.std::basic_ofstream"* %arraydestroy.element3, getelementptr inbounds ([1024 x %"class.std::basic_ofstream"], [1024 x %"class.std::basic_ofstream"]* @f2, i64 0, i64 0)
  br i1 %arraydestroy.done, label %arraydestroy.done1, label %arraydestroy.body.split

arraydestroy.done1:                               ; preds = %arraydestroy.body.split
  ret void
}

; Function Attrs: nounwind uwtable
define internal void @__cxx_global_array_dtor.23(i8* nocapture readnone) #5 section ".text.startup" {
entry:
  tail call void @_ZNSt14basic_ofstreamIcSt11char_traitsIcEED1Ev(%"class.std::basic_ofstream"* getelementptr inbounds ([1024 x %"class.std::basic_ofstream"], [1024 x %"class.std::basic_ofstream"]* @f3, i64 0, i64 1023)) #3
  br label %arraydestroy.body.split

arraydestroy.body.split:                          ; preds = %arraydestroy.body.split, %entry
  %1 = phi %"class.std::basic_ofstream"* [ getelementptr inbounds ([1024 x %"class.std::basic_ofstream"], [1024 x %"class.std::basic_ofstream"]* @f3, i64 0, i64 1023), %entry ], [ %arraydestroy.element3, %arraydestroy.body.split ]
  %arraydestroy.element3 = getelementptr inbounds %"class.std::basic_ofstream", %"class.std::basic_ofstream"* %1, i64 -1
  tail call void @_ZNSt14basic_ofstreamIcSt11char_traitsIcEED1Ev(%"class.std::basic_ofstream"* nonnull %arraydestroy.element3) #3
  %arraydestroy.done = icmp eq %"class.std::basic_ofstream"* %arraydestroy.element3, getelementptr inbounds ([1024 x %"class.std::basic_ofstream"], [1024 x %"class.std::basic_ofstream"]* @f3, i64 0, i64 0)
  br i1 %arraydestroy.done, label %arraydestroy.done1, label %arraydestroy.body.split

arraydestroy.done1:                               ; preds = %arraydestroy.body.split
  ret void
}

; Function Attrs: noinline uwtable
define dso_local void @tracer_cleanup() #6 {
entry:
  br label %for.body

for.cond.cleanup:                                 ; preds = %for.inc
  ret void

for.body:                                         ; preds = %for.inc, %entry
  %indvars.iv = phi i64 [ 0, %entry ], [ %indvars.iv.next, %for.inc ]
  %arrayidx = getelementptr inbounds [1024 x %"class.std::basic_ofstream"], [1024 x %"class.std::basic_ofstream"]* @f1, i64 0, i64 %indvars.iv
  %_M_file.i.i = getelementptr inbounds [1024 x %"class.std::basic_ofstream"], [1024 x %"class.std::basic_ofstream"]* @f1, i64 0, i64 %indvars.iv, i32 1, i32 2
  %call.i.i = tail call zeroext i1 @_ZNKSt12__basic_fileIcE7is_openEv(%"class.std::__basic_file"* nonnull %_M_file.i.i) #21
  br i1 %call.i.i, label %if.then, label %if.end

if.then:                                          ; preds = %for.body
  %_M_filebuf.i = getelementptr inbounds [1024 x %"class.std::basic_ofstream"], [1024 x %"class.std::basic_ofstream"]* @f1, i64 0, i64 %indvars.iv, i32 1
  %call.i = tail call %"class.std::basic_filebuf"* @_ZNSt13basic_filebufIcSt11char_traitsIcEE5closeEv(%"class.std::basic_filebuf"* nonnull %_M_filebuf.i)
  %tobool.i = icmp eq %"class.std::basic_filebuf"* %call.i, null
  br i1 %tobool.i, label %if.then.i, label %if.end

if.then.i:                                        ; preds = %if.then
  %0 = bitcast %"class.std::basic_ofstream"* %arrayidx to i8**
  %vtable.i = load i8*, i8** %0, align 16, !tbaa !6
  %vbase.offset.ptr.i = getelementptr i8, i8* %vtable.i, i64 -24
  %1 = bitcast i8* %vbase.offset.ptr.i to i64*
  %vbase.offset.i = load i64, i64* %1, align 8
  %2 = bitcast %"class.std::basic_ofstream"* %arrayidx to i8*
  %add.ptr.i = getelementptr inbounds i8, i8* %2, i64 %vbase.offset.i
  %3 = bitcast i8* %add.ptr.i to %"class.std::basic_ios"*
  %_M_streambuf_state.i.i.i = getelementptr inbounds i8, i8* %add.ptr.i, i64 32
  %4 = bitcast i8* %_M_streambuf_state.i.i.i to i32*
  %5 = load i32, i32* %4, align 8, !tbaa !8
  %or.i.i.i = or i32 %5, 4
  tail call void @_ZNSt9basic_iosIcSt11char_traitsIcEE5clearESt12_Ios_Iostate(%"class.std::basic_ios"* nonnull %3, i32 %or.i.i.i)
  br label %if.end

if.end:                                           ; preds = %if.then.i, %if.then, %for.body
  %arrayidx4 = getelementptr inbounds [1024 x %"class.std::basic_ofstream"], [1024 x %"class.std::basic_ofstream"]* @f2, i64 0, i64 %indvars.iv
  %_M_file.i.i25 = getelementptr inbounds [1024 x %"class.std::basic_ofstream"], [1024 x %"class.std::basic_ofstream"]* @f2, i64 0, i64 %indvars.iv, i32 1, i32 2
  %call.i.i26 = tail call zeroext i1 @_ZNKSt12__basic_fileIcE7is_openEv(%"class.std::__basic_file"* nonnull %_M_file.i.i25) #21
  br i1 %call.i.i26, label %if.then6, label %if.end9

if.then6:                                         ; preds = %if.end
  %_M_filebuf.i27 = getelementptr inbounds [1024 x %"class.std::basic_ofstream"], [1024 x %"class.std::basic_ofstream"]* @f2, i64 0, i64 %indvars.iv, i32 1
  %call.i28 = tail call %"class.std::basic_filebuf"* @_ZNSt13basic_filebufIcSt11char_traitsIcEE5closeEv(%"class.std::basic_filebuf"* nonnull %_M_filebuf.i27)
  %tobool.i29 = icmp eq %"class.std::basic_filebuf"* %call.i28, null
  br i1 %tobool.i29, label %if.then.i36, label %if.end9

if.then.i36:                                      ; preds = %if.then6
  %6 = bitcast %"class.std::basic_ofstream"* %arrayidx4 to i8**
  %vtable.i30 = load i8*, i8** %6, align 16, !tbaa !6
  %vbase.offset.ptr.i31 = getelementptr i8, i8* %vtable.i30, i64 -24
  %7 = bitcast i8* %vbase.offset.ptr.i31 to i64*
  %vbase.offset.i32 = load i64, i64* %7, align 8
  %8 = bitcast %"class.std::basic_ofstream"* %arrayidx4 to i8*
  %add.ptr.i33 = getelementptr inbounds i8, i8* %8, i64 %vbase.offset.i32
  %9 = bitcast i8* %add.ptr.i33 to %"class.std::basic_ios"*
  %_M_streambuf_state.i.i.i34 = getelementptr inbounds i8, i8* %add.ptr.i33, i64 32
  %10 = bitcast i8* %_M_streambuf_state.i.i.i34 to i32*
  %11 = load i32, i32* %10, align 8, !tbaa !8
  %or.i.i.i35 = or i32 %11, 4
  tail call void @_ZNSt9basic_iosIcSt11char_traitsIcEE5clearESt12_Ios_Iostate(%"class.std::basic_ios"* nonnull %9, i32 %or.i.i.i35)
  br label %if.end9

if.end9:                                          ; preds = %if.then.i36, %if.then6, %if.end
  %arrayidx11 = getelementptr inbounds [1024 x %"class.std::basic_ofstream"], [1024 x %"class.std::basic_ofstream"]* @f3, i64 0, i64 %indvars.iv
  %_M_file.i.i38 = getelementptr inbounds [1024 x %"class.std::basic_ofstream"], [1024 x %"class.std::basic_ofstream"]* @f3, i64 0, i64 %indvars.iv, i32 1, i32 2
  %call.i.i39 = tail call zeroext i1 @_ZNKSt12__basic_fileIcE7is_openEv(%"class.std::__basic_file"* nonnull %_M_file.i.i38) #21
  br i1 %call.i.i39, label %if.then13, label %for.inc

if.then13:                                        ; preds = %if.end9
  %_M_filebuf.i40 = getelementptr inbounds [1024 x %"class.std::basic_ofstream"], [1024 x %"class.std::basic_ofstream"]* @f3, i64 0, i64 %indvars.iv, i32 1
  %call.i41 = tail call %"class.std::basic_filebuf"* @_ZNSt13basic_filebufIcSt11char_traitsIcEE5closeEv(%"class.std::basic_filebuf"* nonnull %_M_filebuf.i40)
  %tobool.i42 = icmp eq %"class.std::basic_filebuf"* %call.i41, null
  br i1 %tobool.i42, label %if.then.i49, label %for.inc

if.then.i49:                                      ; preds = %if.then13
  %12 = bitcast %"class.std::basic_ofstream"* %arrayidx11 to i8**
  %vtable.i43 = load i8*, i8** %12, align 16, !tbaa !6
  %vbase.offset.ptr.i44 = getelementptr i8, i8* %vtable.i43, i64 -24
  %13 = bitcast i8* %vbase.offset.ptr.i44 to i64*
  %vbase.offset.i45 = load i64, i64* %13, align 8
  %14 = bitcast %"class.std::basic_ofstream"* %arrayidx11 to i8*
  %add.ptr.i46 = getelementptr inbounds i8, i8* %14, i64 %vbase.offset.i45
  %15 = bitcast i8* %add.ptr.i46 to %"class.std::basic_ios"*
  %_M_streambuf_state.i.i.i47 = getelementptr inbounds i8, i8* %add.ptr.i46, i64 32
  %16 = bitcast i8* %_M_streambuf_state.i.i.i47 to i32*
  %17 = load i32, i32* %16, align 8, !tbaa !8
  %or.i.i.i48 = or i32 %17, 4
  tail call void @_ZNSt9basic_iosIcSt11char_traitsIcEE5clearESt12_Ios_Iostate(%"class.std::basic_ios"* nonnull %15, i32 %or.i.i.i48)
  br label %for.inc

for.inc:                                          ; preds = %if.then.i49, %if.then13, %if.end9
  %indvars.iv.next = add nuw nsw i64 %indvars.iv, 1
  %exitcond = icmp eq i64 %indvars.iv.next, 1024
  br i1 %exitcond, label %for.cond.cleanup, label %for.body
}

; Function Attrs: nounwind readonly
declare dso_local zeroext i1 @_ZNKSt12__basic_fileIcE7is_openEv(%"class.std::__basic_file"*) local_unnamed_addr #4

declare dso_local %"class.std::basic_filebuf"* @_ZNSt13basic_filebufIcSt11char_traitsIcEE5closeEv(%"class.std::basic_filebuf"*) local_unnamed_addr #1

declare dso_local void @_ZNSt9basic_iosIcSt11char_traitsIcEE5clearESt12_Ios_Iostate(%"class.std::basic_ios"*, i32) local_unnamed_addr #1

; Function Attrs: noinline uwtable
define dso_local void @_Z12get_dir_nameSsSsSs(%"class.std::basic_string"* noalias sret %agg.result, %"class.std::basic_string"* nocapture readonly %run_dir, %"class.std::basic_string"* nocapture readonly %kernel_type, %"class.std::basic_string"* nocapture readonly %type) local_unnamed_addr #6 personality i8* bitcast (i32 (...)* @__gxx_personality_v0 to i8*) {
entry:
  %ref.tmp.i.i.i.i39 = alloca %"class.std::ios_base::Init", align 1
  %ref.tmp.i.i.i.i = alloca %"class.std::ios_base::Init", align 1
  %ret = alloca %"class.std::basic_ostringstream", align 8
  %call = tail call i32 @omp_get_thread_num() #3
  %cmp = icmp sgt i32 %call, 1023
  br i1 %cmp, label %if.then, label %if.end

if.then:                                          ; preds = %entry
  %call1 = tail call dereferenceable(272) %"class.std::basic_ostream"* @_ZStlsISt11char_traitsIcEERSt13basic_ostreamIcT_ES5_PKc(%"class.std::basic_ostream"* nonnull dereferenceable(272) @_ZSt4cout, i8* getelementptr inbounds ([72 x i8], [72 x i8]* @.str, i64 0, i64 0))
  %call2 = tail call dereferenceable(272) %"class.std::basic_ostream"* @_ZStlsISt11char_traitsIcEERSt13basic_ostreamIcT_ES5_PKc(%"class.std::basic_ostream"* nonnull dereferenceable(272) %call1, i8* getelementptr inbounds ([2 x i8], [2 x i8]* @.str.1, i64 0, i64 0))
  tail call void @__assert_fail(i8* getelementptr inbounds ([2 x i8], [2 x i8]* @.str.2, i64 0, i64 0), i8* getelementptr inbounds ([10 x i8], [10 x i8]* @.str.3, i64 0, i64 0), i32 42, i8* getelementptr inbounds ([64 x i8], [64 x i8]* @__PRETTY_FUNCTION__._Z12get_dir_nameSsSsSs, i64 0, i64 0)) #22
  unreachable

if.end:                                           ; preds = %entry
  %0 = bitcast %"class.std::basic_ostringstream"* %ret to i8*
  call void @llvm.lifetime.start.p0i8(i64 352, i8* nonnull %0) #3
  call void @_ZNSt19basic_ostringstreamIcSt11char_traitsIcESaIcEEC1ESt13_Ios_Openmode(%"class.std::basic_ostringstream"* nonnull %ret, i32 16)
  %1 = bitcast %"class.std::basic_ostringstream"* %ret to %"class.std::basic_ostream"*
  %_M_p.i.i.i = getelementptr inbounds %"class.std::basic_string", %"class.std::basic_string"* %run_dir, i64 0, i32 0, i32 0
  %2 = load i8*, i8** %_M_p.i.i.i, align 8, !tbaa !17
  %arrayidx.i.i.i = getelementptr inbounds i8, i8* %2, i64 -24
  %_M_length.i.i = bitcast i8* %arrayidx.i.i.i to i64*
  %3 = load i64, i64* %_M_length.i.i, align 8, !tbaa !20
  %call2.i21 = invoke dereferenceable(272) %"class.std::basic_ostream"* @_ZSt16__ostream_insertIcSt11char_traitsIcEERSt13basic_ostreamIT_T0_ES6_PKS3_l(%"class.std::basic_ostream"* nonnull dereferenceable(272) %1, i8* %2, i64 %3)
          to label %invoke.cont unwind label %lpad

invoke.cont:                                      ; preds = %if.end
  %call1.i22 = invoke dereferenceable(272) %"class.std::basic_ostream"* @_ZSt16__ostream_insertIcSt11char_traitsIcEERSt13basic_ostreamIT_T0_ES6_PKS3_l(%"class.std::basic_ostream"* nonnull dereferenceable(272) %call2.i21, i8* nonnull getelementptr inbounds ([9 x i8], [9 x i8]* @.str.4, i64 0, i64 0), i64 8)
          to label %invoke.cont4 unwind label %lpad

invoke.cont4:                                     ; preds = %invoke.cont
  %_M_p.i.i.i23 = getelementptr inbounds %"class.std::basic_string", %"class.std::basic_string"* %kernel_type, i64 0, i32 0, i32 0
  %4 = load i8*, i8** %_M_p.i.i.i23, align 8, !tbaa !17
  %arrayidx.i.i.i24 = getelementptr inbounds i8, i8* %4, i64 -24
  %_M_length.i.i25 = bitcast i8* %arrayidx.i.i.i24 to i64*
  %5 = load i64, i64* %_M_length.i.i25, align 8, !tbaa !20
  %call2.i26 = invoke dereferenceable(272) %"class.std::basic_ostream"* @_ZSt16__ostream_insertIcSt11char_traitsIcEERSt13basic_ostreamIT_T0_ES6_PKS3_l(%"class.std::basic_ostream"* nonnull dereferenceable(272) %call2.i21, i8* %4, i64 %5)
          to label %invoke.cont6 unwind label %lpad

invoke.cont6:                                     ; preds = %invoke.cont4
  %call1.i29 = invoke dereferenceable(272) %"class.std::basic_ostream"* @_ZSt16__ostream_insertIcSt11char_traitsIcEERSt13basic_ostreamIT_T0_ES6_PKS3_l(%"class.std::basic_ostream"* nonnull dereferenceable(272) %call2.i26, i8* nonnull getelementptr inbounds ([2 x i8], [2 x i8]* @.str.5, i64 0, i64 0), i64 1)
          to label %invoke.cont8 unwind label %lpad

invoke.cont8:                                     ; preds = %invoke.cont6
  %call10 = call i32 @omp_get_thread_num() #3
  %call12 = invoke dereferenceable(272) %"class.std::basic_ostream"* @_ZNSolsEi(%"class.std::basic_ostream"* nonnull %call2.i26, i32 %call10)
          to label %invoke.cont11 unwind label %lpad

invoke.cont11:                                    ; preds = %invoke.cont8
  %call1.i32 = invoke dereferenceable(272) %"class.std::basic_ostream"* @_ZSt16__ostream_insertIcSt11char_traitsIcEERSt13basic_ostreamIT_T0_ES6_PKS3_l(%"class.std::basic_ostream"* nonnull dereferenceable(272) %call12, i8* nonnull getelementptr inbounds ([2 x i8], [2 x i8]* @.str.6, i64 0, i64 0), i64 1)
          to label %invoke.cont13 unwind label %lpad

invoke.cont13:                                    ; preds = %invoke.cont11
  %_M_p.i.i.i34 = getelementptr inbounds %"class.std::basic_string", %"class.std::basic_string"* %type, i64 0, i32 0, i32 0
  %6 = load i8*, i8** %_M_p.i.i.i34, align 8, !tbaa !17
  %arrayidx.i.i.i35 = getelementptr inbounds i8, i8* %6, i64 -24
  %_M_length.i.i36 = bitcast i8* %arrayidx.i.i.i35 to i64*
  %7 = load i64, i64* %_M_length.i.i36, align 8, !tbaa !20
  %call2.i37 = invoke dereferenceable(272) %"class.std::basic_ostream"* @_ZSt16__ostream_insertIcSt11char_traitsIcEERSt13basic_ostreamIT_T0_ES6_PKS3_l(%"class.std::basic_ostream"* nonnull dereferenceable(272) %call12, i8* %6, i64 %7)
          to label %invoke.cont15 unwind label %lpad

invoke.cont15:                                    ; preds = %invoke.cont13
  %call18 = invoke dereferenceable(272) %"class.std::basic_ostream"* @_ZNSo5flushEv(%"class.std::basic_ostream"* nonnull %1)
          to label %invoke.cont17 unwind label %lpad

invoke.cont17:                                    ; preds = %invoke.cont15
  %_M_stringbuf.i = getelementptr inbounds %"class.std::basic_ostringstream", %"class.std::basic_ostringstream"* %ret, i64 0, i32 1
  invoke void @_ZNKSt15basic_stringbufIcSt11char_traitsIcESaIcEE3strEv(%"class.std::basic_string"* sret %agg.result, %"class.std::basic_stringbuf"* nonnull %_M_stringbuf.i)
          to label %invoke.cont19 unwind label %lpad

invoke.cont19:                                    ; preds = %invoke.cont17
  %8 = load i64, i64* bitcast ([4 x i8*]* @_ZTTSt19basic_ostringstreamIcSt11char_traitsIcESaIcEE to i64*), align 8
  %9 = bitcast %"class.std::basic_ostringstream"* %ret to i64*
  store i64 %8, i64* %9, align 8, !tbaa !6
  %10 = load i64, i64* bitcast (i8** getelementptr inbounds ([4 x i8*], [4 x i8*]* @_ZTTSt19basic_ostringstreamIcSt11char_traitsIcESaIcEE, i64 0, i64 3) to i64*), align 8
  %vtable.cast.i.i = inttoptr i64 %8 to i8*
  %vbase.offset.ptr.i.i = getelementptr i8, i8* %vtable.cast.i.i, i64 -24
  %11 = bitcast i8* %vbase.offset.ptr.i.i to i64*
  %vbase.offset.i.i = load i64, i64* %11, align 8
  %add.ptr.i.i = getelementptr inbounds i8, i8* %0, i64 %vbase.offset.i.i
  %12 = bitcast i8* %add.ptr.i.i to i64*
  store i64 %10, i64* %12, align 8, !tbaa !6
  %13 = getelementptr inbounds %"class.std::basic_ostringstream", %"class.std::basic_ostringstream"* %ret, i64 0, i32 1, i32 0, i32 0
  store i32 (...)** bitcast (i8** getelementptr inbounds ({ [16 x i8*] }, { [16 x i8*] }* @_ZTVSt15basic_stringbufIcSt11char_traitsIcESaIcEE, i64 0, inrange i32 0, i64 2) to i32 (...)**), i32 (...)*** %13, align 8, !tbaa !6
  %_M_p.i.i.i.i.i.i = getelementptr inbounds %"class.std::basic_ostringstream", %"class.std::basic_ostringstream"* %ret, i64 0, i32 1, i32 2, i32 0, i32 0
  %14 = load i8*, i8** %_M_p.i.i.i.i.i.i, align 8, !tbaa !17
  %arrayidx.i.i.i.i.i = getelementptr inbounds i8, i8* %14, i64 -24
  %15 = bitcast i8* %arrayidx.i.i.i.i.i to %"struct.std::basic_string<char, std::char_traits<char>, std::allocator<char> >::_Rep"*
  %16 = getelementptr inbounds %"class.std::ios_base::Init", %"class.std::ios_base::Init"* %ref.tmp.i.i.i.i, i64 0, i32 0
  call void @llvm.lifetime.start.p0i8(i64 1, i8* nonnull %16) #3
  %cmp.i.i.i.i.i = icmp eq i8* %arrayidx.i.i.i.i.i, bitcast ([0 x i64]* @_ZNSs4_Rep20_S_empty_rep_storageE to i8*)
  br i1 %cmp.i.i.i.i.i, label %_ZNSt19basic_ostringstreamIcSt11char_traitsIcESaIcEED1Ev.exit, label %if.then.i.i.i.i.i, !prof !22

if.then.i.i.i.i.i:                                ; preds = %invoke.cont19
  %_M_refcount.i.i.i.i.i = getelementptr inbounds i8, i8* %14, i64 -8
  %17 = bitcast i8* %_M_refcount.i.i.i.i.i to i32*
  br i1 icmp ne (i8* bitcast (i32 (i32*, void (i8*)*)* @__pthread_key_create to i8*), i8* null), label %if.then.i.i.i.i.i.i, label %if.else.i.i.i.i.i.i

if.then.i.i.i.i.i.i:                              ; preds = %if.then.i.i.i.i.i
  %18 = atomicrmw volatile add i32* %17, i32 -1 acq_rel
  br label %invoke.cont.i.i.i.i.i

if.else.i.i.i.i.i.i:                              ; preds = %if.then.i.i.i.i.i
  %19 = load i32, i32* %17, align 4, !tbaa !23
  %add.i.i.i.i.i.i.i = add nsw i32 %19, -1
  store i32 %add.i.i.i.i.i.i.i, i32* %17, align 4, !tbaa !23
  br label %invoke.cont.i.i.i.i.i

invoke.cont.i.i.i.i.i:                            ; preds = %if.else.i.i.i.i.i.i, %if.then.i.i.i.i.i.i
  %retval.0.i.i.i.i.i.i = phi i32 [ %18, %if.then.i.i.i.i.i.i ], [ %19, %if.else.i.i.i.i.i.i ]
  %cmp3.i.i.i.i.i = icmp slt i32 %retval.0.i.i.i.i.i.i, 1
  br i1 %cmp3.i.i.i.i.i, label %if.then4.i.i.i.i.i, label %_ZNSt19basic_ostringstreamIcSt11char_traitsIcESaIcEED1Ev.exit

if.then4.i.i.i.i.i:                               ; preds = %invoke.cont.i.i.i.i.i
  call void @_ZNSs4_Rep10_M_destroyERKSaIcE(%"struct.std::basic_string<char, std::char_traits<char>, std::allocator<char> >::_Rep"* nonnull %15, %"class.std::ios_base::Init"* nonnull dereferenceable(1) %ref.tmp.i.i.i.i) #3
  br label %_ZNSt19basic_ostringstreamIcSt11char_traitsIcESaIcEED1Ev.exit

_ZNSt19basic_ostringstreamIcSt11char_traitsIcESaIcEED1Ev.exit: ; preds = %if.then4.i.i.i.i.i, %invoke.cont.i.i.i.i.i, %invoke.cont19
  call void @llvm.lifetime.end.p0i8(i64 1, i8* nonnull %16) #3
  store i32 (...)** bitcast (i8** getelementptr inbounds ({ [16 x i8*] }, { [16 x i8*] }* @_ZTVSt15basic_streambufIcSt11char_traitsIcEE, i64 0, inrange i32 0, i64 2) to i32 (...)**), i32 (...)*** %13, align 8, !tbaa !6
  %_M_buf_locale.i.i.i.i = getelementptr inbounds %"class.std::basic_ostringstream", %"class.std::basic_ostringstream"* %ret, i64 0, i32 1, i32 0, i32 7
  call void @_ZNSt6localeD1Ev(%"class.std::locale"* nonnull %_M_buf_locale.i.i.i.i) #3
  %20 = getelementptr inbounds %"class.std::basic_ostringstream", %"class.std::basic_ostringstream"* %ret, i64 0, i32 2, i32 0
  call void @_ZNSt8ios_baseD2Ev(%"class.std::ios_base"* nonnull %20) #3
  call void @llvm.lifetime.end.p0i8(i64 352, i8* nonnull %0) #3
  ret void

lpad:                                             ; preds = %invoke.cont17, %invoke.cont15, %invoke.cont13, %invoke.cont11, %invoke.cont8, %invoke.cont6, %invoke.cont4, %invoke.cont, %if.end
  %21 = landingpad { i8*, i32 }
          cleanup
  %22 = load i64, i64* bitcast ([4 x i8*]* @_ZTTSt19basic_ostringstreamIcSt11char_traitsIcESaIcEE to i64*), align 8
  %23 = bitcast %"class.std::basic_ostringstream"* %ret to i64*
  store i64 %22, i64* %23, align 8, !tbaa !6
  %24 = load i64, i64* bitcast (i8** getelementptr inbounds ([4 x i8*], [4 x i8*]* @_ZTTSt19basic_ostringstreamIcSt11char_traitsIcESaIcEE, i64 0, i64 3) to i64*), align 8
  %vtable.cast.i.i40 = inttoptr i64 %22 to i8*
  %vbase.offset.ptr.i.i41 = getelementptr i8, i8* %vtable.cast.i.i40, i64 -24
  %25 = bitcast i8* %vbase.offset.ptr.i.i41 to i64*
  %vbase.offset.i.i42 = load i64, i64* %25, align 8
  %add.ptr.i.i43 = getelementptr inbounds i8, i8* %0, i64 %vbase.offset.i.i42
  %26 = bitcast i8* %add.ptr.i.i43 to i64*
  store i64 %24, i64* %26, align 8, !tbaa !6
  %27 = getelementptr inbounds %"class.std::basic_ostringstream", %"class.std::basic_ostringstream"* %ret, i64 0, i32 1, i32 0, i32 0
  store i32 (...)** bitcast (i8** getelementptr inbounds ({ [16 x i8*] }, { [16 x i8*] }* @_ZTVSt15basic_stringbufIcSt11char_traitsIcESaIcEE, i64 0, inrange i32 0, i64 2) to i32 (...)**), i32 (...)*** %27, align 8, !tbaa !6
  %_M_p.i.i.i.i.i.i44 = getelementptr inbounds %"class.std::basic_ostringstream", %"class.std::basic_ostringstream"* %ret, i64 0, i32 1, i32 2, i32 0, i32 0
  %28 = load i8*, i8** %_M_p.i.i.i.i.i.i44, align 8, !tbaa !17
  %arrayidx.i.i.i.i.i45 = getelementptr inbounds i8, i8* %28, i64 -24
  %29 = bitcast i8* %arrayidx.i.i.i.i.i45 to %"struct.std::basic_string<char, std::char_traits<char>, std::allocator<char> >::_Rep"*
  %30 = getelementptr inbounds %"class.std::ios_base::Init", %"class.std::ios_base::Init"* %ref.tmp.i.i.i.i39, i64 0, i32 0
  call void @llvm.lifetime.start.p0i8(i64 1, i8* nonnull %30) #3
  %cmp.i.i.i.i.i46 = icmp eq i8* %arrayidx.i.i.i.i.i45, bitcast ([0 x i64]* @_ZNSs4_Rep20_S_empty_rep_storageE to i8*)
  br i1 %cmp.i.i.i.i.i46, label %_ZNSt19basic_ostringstreamIcSt11char_traitsIcESaIcEED1Ev.exit57, label %if.then.i.i.i.i.i48, !prof !22

if.then.i.i.i.i.i48:                              ; preds = %lpad
  %_M_refcount.i.i.i.i.i47 = getelementptr inbounds i8, i8* %28, i64 -8
  %31 = bitcast i8* %_M_refcount.i.i.i.i.i47 to i32*
  br i1 icmp ne (i8* bitcast (i32 (i32*, void (i8*)*)* @__pthread_key_create to i8*), i8* null), label %if.then.i.i.i.i.i.i49, label %if.else.i.i.i.i.i.i51

if.then.i.i.i.i.i.i49:                            ; preds = %if.then.i.i.i.i.i48
  %32 = atomicrmw volatile add i32* %31, i32 -1 acq_rel
  br label %invoke.cont.i.i.i.i.i54

if.else.i.i.i.i.i.i51:                            ; preds = %if.then.i.i.i.i.i48
  %33 = load i32, i32* %31, align 4, !tbaa !23
  %add.i.i.i.i.i.i.i50 = add nsw i32 %33, -1
  store i32 %add.i.i.i.i.i.i.i50, i32* %31, align 4, !tbaa !23
  br label %invoke.cont.i.i.i.i.i54

invoke.cont.i.i.i.i.i54:                          ; preds = %if.else.i.i.i.i.i.i51, %if.then.i.i.i.i.i.i49
  %retval.0.i.i.i.i.i.i52 = phi i32 [ %32, %if.then.i.i.i.i.i.i49 ], [ %33, %if.else.i.i.i.i.i.i51 ]
  %cmp3.i.i.i.i.i53 = icmp slt i32 %retval.0.i.i.i.i.i.i52, 1
  br i1 %cmp3.i.i.i.i.i53, label %if.then4.i.i.i.i.i55, label %_ZNSt19basic_ostringstreamIcSt11char_traitsIcESaIcEED1Ev.exit57

if.then4.i.i.i.i.i55:                             ; preds = %invoke.cont.i.i.i.i.i54
  call void @_ZNSs4_Rep10_M_destroyERKSaIcE(%"struct.std::basic_string<char, std::char_traits<char>, std::allocator<char> >::_Rep"* nonnull %29, %"class.std::ios_base::Init"* nonnull dereferenceable(1) %ref.tmp.i.i.i.i39) #3
  br label %_ZNSt19basic_ostringstreamIcSt11char_traitsIcESaIcEED1Ev.exit57

_ZNSt19basic_ostringstreamIcSt11char_traitsIcESaIcEED1Ev.exit57: ; preds = %if.then4.i.i.i.i.i55, %invoke.cont.i.i.i.i.i54, %lpad
  call void @llvm.lifetime.end.p0i8(i64 1, i8* nonnull %30) #3
  store i32 (...)** bitcast (i8** getelementptr inbounds ({ [16 x i8*] }, { [16 x i8*] }* @_ZTVSt15basic_streambufIcSt11char_traitsIcEE, i64 0, inrange i32 0, i64 2) to i32 (...)**), i32 (...)*** %27, align 8, !tbaa !6
  %_M_buf_locale.i.i.i.i56 = getelementptr inbounds %"class.std::basic_ostringstream", %"class.std::basic_ostringstream"* %ret, i64 0, i32 1, i32 0, i32 7
  call void @_ZNSt6localeD1Ev(%"class.std::locale"* nonnull %_M_buf_locale.i.i.i.i56) #3
  %34 = getelementptr inbounds %"class.std::basic_ostringstream", %"class.std::basic_ostringstream"* %ret, i64 0, i32 2, i32 0
  call void @_ZNSt8ios_baseD2Ev(%"class.std::ios_base"* nonnull %34) #3
  call void @llvm.lifetime.end.p0i8(i64 352, i8* nonnull %0) #3
  resume { i8*, i32 } %21
}

; Function Attrs: nounwind
declare dso_local i32 @omp_get_thread_num() local_unnamed_addr #2

; Function Attrs: inlinehint uwtable
declare dso_local dereferenceable(272) %"class.std::basic_ostream"* @_ZStlsISt11char_traitsIcEERSt13basic_ostreamIcT_ES5_PKc(%"class.std::basic_ostream"* dereferenceable(272), i8*) local_unnamed_addr #7

; Function Attrs: noreturn nounwind
declare dso_local void @__assert_fail(i8*, i8*, i32, i8*) local_unnamed_addr #8

; Function Attrs: argmemonly nounwind
declare void @llvm.lifetime.start.p0i8(i64 immarg, i8* nocapture) #9

; Function Attrs: uwtable
declare dso_local void @_ZNSt19basic_ostringstreamIcSt11char_traitsIcESaIcEEC1ESt13_Ios_Openmode(%"class.std::basic_ostringstream"*, i32) unnamed_addr #0 align 2

declare dso_local dereferenceable(272) %"class.std::basic_ostream"* @_ZSt16__ostream_insertIcSt11char_traitsIcEERSt13basic_ostreamIT_T0_ES6_PKS3_l(%"class.std::basic_ostream"* dereferenceable(272), i8*, i64) local_unnamed_addr #1

declare dso_local dereferenceable(272) %"class.std::basic_ostream"* @_ZNSolsEi(%"class.std::basic_ostream"*, i32) local_unnamed_addr #1

declare dso_local dereferenceable(272) %"class.std::basic_ostream"* @_ZNSo5flushEv(%"class.std::basic_ostream"*) local_unnamed_addr #1

; Function Attrs: uwtable
declare dso_local void @_ZNKSt15basic_stringbufIcSt11char_traitsIcESaIcEE3strEv(%"class.std::basic_string"* noalias sret, %"class.std::basic_stringbuf"*) local_unnamed_addr #0 align 2

; Function Attrs: nounwind
declare extern_weak dso_local i32 @__pthread_key_create(i32*, void (i8*)*) #2

; Function Attrs: nounwind
declare dso_local void @_ZNSs4_Rep10_M_destroyERKSaIcE(%"struct.std::basic_string<char, std::char_traits<char>, std::allocator<char> >::_Rep"*, %"class.std::ios_base::Init"* dereferenceable(1)) local_unnamed_addr #2

; Function Attrs: argmemonly nounwind
declare void @llvm.lifetime.end.p0i8(i64 immarg, i8* nocapture) #9

; Function Attrs: nounwind
declare dso_local void @_ZNSt6localeD1Ev(%"class.std::locale"*) unnamed_addr #2

; Function Attrs: nounwind
declare dso_local void @_ZNSt8ios_baseD2Ev(%"class.std::ios_base"*) unnamed_addr #2

; Function Attrs: noinline uwtable
define dso_local void @printBranch(i8* %name, i8* %kernel_type, i8* %run_dir, i32 %cond, i8* %n1, i8* %n2) #6 personality i8* bitcast (i32 (...)* @__gxx_personality_v0 to i8*) {
entry:
  %ref.tmp.i138 = alloca %"class.std::ios_base::Init", align 1
  %ref.tmp.i124 = alloca %"class.std::ios_base::Init", align 1
  %ref.tmp.i107 = alloca %"class.std::ios_base::Init", align 1
  %ref.tmp.i93 = alloca %"class.std::ios_base::Init", align 1
  %ref.tmp.i79 = alloca %"class.std::ios_base::Init", align 1
  %ref.tmp.i65 = alloca %"class.std::ios_base::Init", align 1
  %ref.tmp.i51 = alloca %"class.std::ios_base::Init", align 1
  %ref.tmp.i = alloca %"class.std::ios_base::Init", align 1
  %ref.tmp = alloca %"class.std::basic_string", align 8
  %agg.tmp = alloca %"class.std::basic_string", align 8
  %ref.tmp5 = alloca %"class.std::ios_base::Init", align 1
  %agg.tmp6 = alloca %"class.std::basic_string", align 8
  %ref.tmp7 = alloca %"class.std::ios_base::Init", align 1
  %agg.tmp10 = alloca %"class.std::basic_string", align 8
  %ref.tmp11 = alloca %"class.std::ios_base::Init", align 1
  %call = tail call i32 @omp_get_thread_num() #3
  %idxprom = sext i32 %call to i64
  %_M_file.i.i = getelementptr inbounds [1024 x %"class.std::basic_ofstream"], [1024 x %"class.std::basic_ofstream"]* @f1, i64 0, i64 %idxprom, i32 1, i32 2
  %call.i.i = tail call zeroext i1 @_ZNKSt12__basic_fileIcE7is_openEv(%"class.std::__basic_file"* nonnull %_M_file.i.i) #21
  br i1 %call.i.i, label %if.end, label %if.then

if.then:                                          ; preds = %entry
  %call2 = tail call i32 @omp_get_thread_num() #3
  %idxprom3 = sext i32 %call2 to i64
  %arrayidx4 = getelementptr inbounds [1024 x %"class.std::basic_ofstream"], [1024 x %"class.std::basic_ofstream"]* @f1, i64 0, i64 %idxprom3
  %0 = bitcast %"class.std::basic_string"* %ref.tmp to i8*
  call void @llvm.lifetime.start.p0i8(i64 8, i8* nonnull %0) #3
  %1 = getelementptr inbounds %"class.std::ios_base::Init", %"class.std::ios_base::Init"* %ref.tmp5, i64 0, i32 0
  call void @llvm.lifetime.start.p0i8(i64 1, i8* nonnull %1) #3
  invoke void @_ZNSsC1EPKcRKSaIcE(%"class.std::basic_string"* nonnull %agg.tmp, i8* %run_dir, %"class.std::ios_base::Init"* nonnull dereferenceable(1) %ref.tmp5)
          to label %invoke.cont unwind label %lpad

invoke.cont:                                      ; preds = %if.then
  %2 = getelementptr inbounds %"class.std::ios_base::Init", %"class.std::ios_base::Init"* %ref.tmp7, i64 0, i32 0
  call void @llvm.lifetime.start.p0i8(i64 1, i8* nonnull %2) #3
  invoke void @_ZNSsC1EPKcRKSaIcE(%"class.std::basic_string"* nonnull %agg.tmp6, i8* %kernel_type, %"class.std::ios_base::Init"* nonnull dereferenceable(1) %ref.tmp7)
          to label %invoke.cont9 unwind label %lpad8

invoke.cont9:                                     ; preds = %invoke.cont
  %3 = getelementptr inbounds %"class.std::ios_base::Init", %"class.std::ios_base::Init"* %ref.tmp11, i64 0, i32 0
  call void @llvm.lifetime.start.p0i8(i64 1, i8* nonnull %3) #3
  invoke void @_ZNSsC1EPKcRKSaIcE(%"class.std::basic_string"* nonnull %agg.tmp10, i8* getelementptr inbounds ([9 x i8], [9 x i8]* @.str.7, i64 0, i64 0), %"class.std::ios_base::Init"* nonnull dereferenceable(1) %ref.tmp11)
          to label %invoke.cont13 unwind label %lpad12

invoke.cont13:                                    ; preds = %invoke.cont9
  invoke void @_Z12get_dir_nameSsSsSs(%"class.std::basic_string"* nonnull sret %ref.tmp, %"class.std::basic_string"* nonnull %agg.tmp, %"class.std::basic_string"* nonnull %agg.tmp6, %"class.std::basic_string"* nonnull %agg.tmp10)
          to label %invoke.cont15 unwind label %lpad14

invoke.cont15:                                    ; preds = %invoke.cont13
  %_M_filebuf.i = getelementptr inbounds [1024 x %"class.std::basic_ofstream"], [1024 x %"class.std::basic_ofstream"]* @f1, i64 0, i64 %idxprom3, i32 1
  %_M_p.i.i.i.i = getelementptr inbounds %"class.std::basic_string", %"class.std::basic_string"* %ref.tmp, i64 0, i32 0, i32 0
  %4 = load i8*, i8** %_M_p.i.i.i.i, align 8, !tbaa !17
  %call2.i.i49 = invoke %"class.std::basic_filebuf"* @_ZNSt13basic_filebufIcSt11char_traitsIcEE4openEPKcSt13_Ios_Openmode(%"class.std::basic_filebuf"* nonnull %_M_filebuf.i, i8* %4, i32 17)
          to label %call2.i.i.noexc unwind label %lpad16

call2.i.i.noexc:                                  ; preds = %invoke.cont15
  %tobool.i44 = icmp eq %"class.std::basic_filebuf"* %call2.i.i49, null
  %5 = bitcast %"class.std::basic_ofstream"* %arrayidx4 to i8**
  %vtable3.i = load i8*, i8** %5, align 16, !tbaa !6
  %vbase.offset.ptr4.i = getelementptr i8, i8* %vtable3.i, i64 -24
  %6 = bitcast i8* %vbase.offset.ptr4.i to i64*
  %vbase.offset5.i = load i64, i64* %6, align 8
  %7 = bitcast %"class.std::basic_ofstream"* %arrayidx4 to i8*
  %add.ptr6.i = getelementptr inbounds i8, i8* %7, i64 %vbase.offset5.i
  %8 = bitcast i8* %add.ptr6.i to %"class.std::basic_ios"*
  br i1 %tobool.i44, label %if.then.i47, label %if.else.i48

if.then.i47:                                      ; preds = %call2.i.i.noexc
  %_M_streambuf_state.i.i.i45 = getelementptr inbounds i8, i8* %add.ptr6.i, i64 32
  %9 = bitcast i8* %_M_streambuf_state.i.i.i45 to i32*
  %10 = load i32, i32* %9, align 8, !tbaa !8
  %or.i.i.i46 = or i32 %10, 4
  invoke void @_ZNSt9basic_iosIcSt11char_traitsIcEE5clearESt12_Ios_Iostate(%"class.std::basic_ios"* nonnull %8, i32 %or.i.i.i46)
          to label %invoke.cont19 unwind label %lpad16

if.else.i48:                                      ; preds = %call2.i.i.noexc
  invoke void @_ZNSt9basic_iosIcSt11char_traitsIcEE5clearESt12_Ios_Iostate(%"class.std::basic_ios"* nonnull %8, i32 0)
          to label %invoke.cont19 unwind label %lpad16

invoke.cont19:                                    ; preds = %if.else.i48, %if.then.i47
  %11 = load i8*, i8** %_M_p.i.i.i.i, align 8, !tbaa !17
  %arrayidx.i.i = getelementptr inbounds i8, i8* %11, i64 -24
  %12 = bitcast i8* %arrayidx.i.i to %"struct.std::basic_string<char, std::char_traits<char>, std::allocator<char> >::_Rep"*
  %13 = getelementptr inbounds %"class.std::ios_base::Init", %"class.std::ios_base::Init"* %ref.tmp.i, i64 0, i32 0
  call void @llvm.lifetime.start.p0i8(i64 1, i8* nonnull %13) #3
  %cmp.i.i = icmp eq i8* %arrayidx.i.i, bitcast ([0 x i64]* @_ZNSs4_Rep20_S_empty_rep_storageE to i8*)
  br i1 %cmp.i.i, label %_ZNSsD2Ev.exit, label %if.then.i.i, !prof !22

if.then.i.i:                                      ; preds = %invoke.cont19
  %_M_refcount.i.i = getelementptr inbounds i8, i8* %11, i64 -8
  %14 = bitcast i8* %_M_refcount.i.i to i32*
  br i1 icmp ne (i8* bitcast (i32 (i32*, void (i8*)*)* @__pthread_key_create to i8*), i8* null), label %if.then.i.i.i, label %if.else.i.i.i

if.then.i.i.i:                                    ; preds = %if.then.i.i
  %15 = atomicrmw volatile add i32* %14, i32 -1 acq_rel
  br label %invoke.cont.i.i

if.else.i.i.i:                                    ; preds = %if.then.i.i
  %16 = load i32, i32* %14, align 4, !tbaa !23
  %add.i.i.i.i = add nsw i32 %16, -1
  store i32 %add.i.i.i.i, i32* %14, align 4, !tbaa !23
  br label %invoke.cont.i.i

invoke.cont.i.i:                                  ; preds = %if.else.i.i.i, %if.then.i.i.i
  %retval.0.i.i.i = phi i32 [ %15, %if.then.i.i.i ], [ %16, %if.else.i.i.i ]
  %cmp3.i.i = icmp slt i32 %retval.0.i.i.i, 1
  br i1 %cmp3.i.i, label %if.then4.i.i, label %_ZNSsD2Ev.exit

if.then4.i.i:                                     ; preds = %invoke.cont.i.i
  call void @_ZNSs4_Rep10_M_destroyERKSaIcE(%"struct.std::basic_string<char, std::char_traits<char>, std::allocator<char> >::_Rep"* nonnull %12, %"class.std::ios_base::Init"* nonnull dereferenceable(1) %ref.tmp.i) #3
  br label %_ZNSsD2Ev.exit

_ZNSsD2Ev.exit:                                   ; preds = %if.then4.i.i, %invoke.cont.i.i, %invoke.cont19
  call void @llvm.lifetime.end.p0i8(i64 1, i8* nonnull %13) #3
  %_M_p.i.i.i52 = getelementptr inbounds %"class.std::basic_string", %"class.std::basic_string"* %agg.tmp10, i64 0, i32 0, i32 0
  %17 = load i8*, i8** %_M_p.i.i.i52, align 8, !tbaa !17
  %arrayidx.i.i53 = getelementptr inbounds i8, i8* %17, i64 -24
  %18 = bitcast i8* %arrayidx.i.i53 to %"struct.std::basic_string<char, std::char_traits<char>, std::allocator<char> >::_Rep"*
  %19 = getelementptr inbounds %"class.std::ios_base::Init", %"class.std::ios_base::Init"* %ref.tmp.i51, i64 0, i32 0
  call void @llvm.lifetime.start.p0i8(i64 1, i8* nonnull %19) #3
  %cmp.i.i54 = icmp eq i8* %arrayidx.i.i53, bitcast ([0 x i64]* @_ZNSs4_Rep20_S_empty_rep_storageE to i8*)
  br i1 %cmp.i.i54, label %_ZNSsD2Ev.exit64, label %if.then.i.i56, !prof !22

if.then.i.i56:                                    ; preds = %_ZNSsD2Ev.exit
  %_M_refcount.i.i55 = getelementptr inbounds i8, i8* %17, i64 -8
  %20 = bitcast i8* %_M_refcount.i.i55 to i32*
  br i1 icmp ne (i8* bitcast (i32 (i32*, void (i8*)*)* @__pthread_key_create to i8*), i8* null), label %if.then.i.i.i57, label %if.else.i.i.i59

if.then.i.i.i57:                                  ; preds = %if.then.i.i56
  %21 = atomicrmw volatile add i32* %20, i32 -1 acq_rel
  br label %invoke.cont.i.i62

if.else.i.i.i59:                                  ; preds = %if.then.i.i56
  %22 = load i32, i32* %20, align 4, !tbaa !23
  %add.i.i.i.i58 = add nsw i32 %22, -1
  store i32 %add.i.i.i.i58, i32* %20, align 4, !tbaa !23
  br label %invoke.cont.i.i62

invoke.cont.i.i62:                                ; preds = %if.else.i.i.i59, %if.then.i.i.i57
  %retval.0.i.i.i60 = phi i32 [ %21, %if.then.i.i.i57 ], [ %22, %if.else.i.i.i59 ]
  %cmp3.i.i61 = icmp slt i32 %retval.0.i.i.i60, 1
  br i1 %cmp3.i.i61, label %if.then4.i.i63, label %_ZNSsD2Ev.exit64

if.then4.i.i63:                                   ; preds = %invoke.cont.i.i62
  call void @_ZNSs4_Rep10_M_destroyERKSaIcE(%"struct.std::basic_string<char, std::char_traits<char>, std::allocator<char> >::_Rep"* nonnull %18, %"class.std::ios_base::Init"* nonnull dereferenceable(1) %ref.tmp.i51) #3
  br label %_ZNSsD2Ev.exit64

_ZNSsD2Ev.exit64:                                 ; preds = %if.then4.i.i63, %invoke.cont.i.i62, %_ZNSsD2Ev.exit
  call void @llvm.lifetime.end.p0i8(i64 1, i8* nonnull %19) #3
  call void @llvm.lifetime.end.p0i8(i64 1, i8* nonnull %3) #3
  %_M_p.i.i.i66 = getelementptr inbounds %"class.std::basic_string", %"class.std::basic_string"* %agg.tmp6, i64 0, i32 0, i32 0
  %23 = load i8*, i8** %_M_p.i.i.i66, align 8, !tbaa !17
  %arrayidx.i.i67 = getelementptr inbounds i8, i8* %23, i64 -24
  %24 = bitcast i8* %arrayidx.i.i67 to %"struct.std::basic_string<char, std::char_traits<char>, std::allocator<char> >::_Rep"*
  %25 = getelementptr inbounds %"class.std::ios_base::Init", %"class.std::ios_base::Init"* %ref.tmp.i65, i64 0, i32 0
  call void @llvm.lifetime.start.p0i8(i64 1, i8* nonnull %25) #3
  %cmp.i.i68 = icmp eq i8* %arrayidx.i.i67, bitcast ([0 x i64]* @_ZNSs4_Rep20_S_empty_rep_storageE to i8*)
  br i1 %cmp.i.i68, label %_ZNSsD2Ev.exit78, label %if.then.i.i70, !prof !22

if.then.i.i70:                                    ; preds = %_ZNSsD2Ev.exit64
  %_M_refcount.i.i69 = getelementptr inbounds i8, i8* %23, i64 -8
  %26 = bitcast i8* %_M_refcount.i.i69 to i32*
  br i1 icmp ne (i8* bitcast (i32 (i32*, void (i8*)*)* @__pthread_key_create to i8*), i8* null), label %if.then.i.i.i71, label %if.else.i.i.i73

if.then.i.i.i71:                                  ; preds = %if.then.i.i70
  %27 = atomicrmw volatile add i32* %26, i32 -1 acq_rel
  br label %invoke.cont.i.i76

if.else.i.i.i73:                                  ; preds = %if.then.i.i70
  %28 = load i32, i32* %26, align 4, !tbaa !23
  %add.i.i.i.i72 = add nsw i32 %28, -1
  store i32 %add.i.i.i.i72, i32* %26, align 4, !tbaa !23
  br label %invoke.cont.i.i76

invoke.cont.i.i76:                                ; preds = %if.else.i.i.i73, %if.then.i.i.i71
  %retval.0.i.i.i74 = phi i32 [ %27, %if.then.i.i.i71 ], [ %28, %if.else.i.i.i73 ]
  %cmp3.i.i75 = icmp slt i32 %retval.0.i.i.i74, 1
  br i1 %cmp3.i.i75, label %if.then4.i.i77, label %_ZNSsD2Ev.exit78

if.then4.i.i77:                                   ; preds = %invoke.cont.i.i76
  call void @_ZNSs4_Rep10_M_destroyERKSaIcE(%"struct.std::basic_string<char, std::char_traits<char>, std::allocator<char> >::_Rep"* nonnull %24, %"class.std::ios_base::Init"* nonnull dereferenceable(1) %ref.tmp.i65) #3
  br label %_ZNSsD2Ev.exit78

_ZNSsD2Ev.exit78:                                 ; preds = %if.then4.i.i77, %invoke.cont.i.i76, %_ZNSsD2Ev.exit64
  call void @llvm.lifetime.end.p0i8(i64 1, i8* nonnull %25) #3
  call void @llvm.lifetime.end.p0i8(i64 1, i8* nonnull %2) #3
  %_M_p.i.i.i80 = getelementptr inbounds %"class.std::basic_string", %"class.std::basic_string"* %agg.tmp, i64 0, i32 0, i32 0
  %29 = load i8*, i8** %_M_p.i.i.i80, align 8, !tbaa !17
  %arrayidx.i.i81 = getelementptr inbounds i8, i8* %29, i64 -24
  %30 = bitcast i8* %arrayidx.i.i81 to %"struct.std::basic_string<char, std::char_traits<char>, std::allocator<char> >::_Rep"*
  %31 = getelementptr inbounds %"class.std::ios_base::Init", %"class.std::ios_base::Init"* %ref.tmp.i79, i64 0, i32 0
  call void @llvm.lifetime.start.p0i8(i64 1, i8* nonnull %31) #3
  %cmp.i.i82 = icmp eq i8* %arrayidx.i.i81, bitcast ([0 x i64]* @_ZNSs4_Rep20_S_empty_rep_storageE to i8*)
  br i1 %cmp.i.i82, label %_ZNSsD2Ev.exit92, label %if.then.i.i84, !prof !22

if.then.i.i84:                                    ; preds = %_ZNSsD2Ev.exit78
  %_M_refcount.i.i83 = getelementptr inbounds i8, i8* %29, i64 -8
  %32 = bitcast i8* %_M_refcount.i.i83 to i32*
  br i1 icmp ne (i8* bitcast (i32 (i32*, void (i8*)*)* @__pthread_key_create to i8*), i8* null), label %if.then.i.i.i85, label %if.else.i.i.i87

if.then.i.i.i85:                                  ; preds = %if.then.i.i84
  %33 = atomicrmw volatile add i32* %32, i32 -1 acq_rel
  br label %invoke.cont.i.i90

if.else.i.i.i87:                                  ; preds = %if.then.i.i84
  %34 = load i32, i32* %32, align 4, !tbaa !23
  %add.i.i.i.i86 = add nsw i32 %34, -1
  store i32 %add.i.i.i.i86, i32* %32, align 4, !tbaa !23
  br label %invoke.cont.i.i90

invoke.cont.i.i90:                                ; preds = %if.else.i.i.i87, %if.then.i.i.i85
  %retval.0.i.i.i88 = phi i32 [ %33, %if.then.i.i.i85 ], [ %34, %if.else.i.i.i87 ]
  %cmp3.i.i89 = icmp slt i32 %retval.0.i.i.i88, 1
  br i1 %cmp3.i.i89, label %if.then4.i.i91, label %_ZNSsD2Ev.exit92

if.then4.i.i91:                                   ; preds = %invoke.cont.i.i90
  call void @_ZNSs4_Rep10_M_destroyERKSaIcE(%"struct.std::basic_string<char, std::char_traits<char>, std::allocator<char> >::_Rep"* nonnull %30, %"class.std::ios_base::Init"* nonnull dereferenceable(1) %ref.tmp.i79) #3
  br label %_ZNSsD2Ev.exit92

_ZNSsD2Ev.exit92:                                 ; preds = %if.then4.i.i91, %invoke.cont.i.i90, %_ZNSsD2Ev.exit78
  call void @llvm.lifetime.end.p0i8(i64 1, i8* nonnull %31) #3
  call void @llvm.lifetime.end.p0i8(i64 1, i8* nonnull %1) #3
  call void @llvm.lifetime.end.p0i8(i64 8, i8* nonnull %0) #3
  br label %if.end

lpad:                                             ; preds = %if.then
  %35 = landingpad { i8*, i32 }
          cleanup
  %36 = extractvalue { i8*, i32 } %35, 0
  %37 = extractvalue { i8*, i32 } %35, 1
  br label %ehcleanup26

lpad8:                                            ; preds = %invoke.cont
  %38 = landingpad { i8*, i32 }
          cleanup
  %39 = extractvalue { i8*, i32 } %38, 0
  %40 = extractvalue { i8*, i32 } %38, 1
  br label %ehcleanup23

lpad12:                                           ; preds = %invoke.cont9
  %41 = landingpad { i8*, i32 }
          cleanup
  %42 = extractvalue { i8*, i32 } %41, 0
  %43 = extractvalue { i8*, i32 } %41, 1
  br label %ehcleanup20

lpad14:                                           ; preds = %invoke.cont13
  %44 = landingpad { i8*, i32 }
          cleanup
  %45 = extractvalue { i8*, i32 } %44, 0
  %46 = extractvalue { i8*, i32 } %44, 1
  br label %ehcleanup

lpad16:                                           ; preds = %if.else.i48, %if.then.i47, %invoke.cont15
  %47 = landingpad { i8*, i32 }
          cleanup
  %48 = extractvalue { i8*, i32 } %47, 0
  %49 = extractvalue { i8*, i32 } %47, 1
  %50 = load i8*, i8** %_M_p.i.i.i.i, align 8, !tbaa !17
  %arrayidx.i.i95 = getelementptr inbounds i8, i8* %50, i64 -24
  %51 = bitcast i8* %arrayidx.i.i95 to %"struct.std::basic_string<char, std::char_traits<char>, std::allocator<char> >::_Rep"*
  %52 = getelementptr inbounds %"class.std::ios_base::Init", %"class.std::ios_base::Init"* %ref.tmp.i93, i64 0, i32 0
  call void @llvm.lifetime.start.p0i8(i64 1, i8* nonnull %52) #3
  %cmp.i.i96 = icmp eq i8* %arrayidx.i.i95, bitcast ([0 x i64]* @_ZNSs4_Rep20_S_empty_rep_storageE to i8*)
  br i1 %cmp.i.i96, label %_ZNSsD2Ev.exit106, label %if.then.i.i98, !prof !22

if.then.i.i98:                                    ; preds = %lpad16
  %_M_refcount.i.i97 = getelementptr inbounds i8, i8* %50, i64 -8
  %53 = bitcast i8* %_M_refcount.i.i97 to i32*
  br i1 icmp ne (i8* bitcast (i32 (i32*, void (i8*)*)* @__pthread_key_create to i8*), i8* null), label %if.then.i.i.i99, label %if.else.i.i.i101

if.then.i.i.i99:                                  ; preds = %if.then.i.i98
  %54 = atomicrmw volatile add i32* %53, i32 -1 acq_rel
  br label %invoke.cont.i.i104

if.else.i.i.i101:                                 ; preds = %if.then.i.i98
  %55 = load i32, i32* %53, align 4, !tbaa !23
  %add.i.i.i.i100 = add nsw i32 %55, -1
  store i32 %add.i.i.i.i100, i32* %53, align 4, !tbaa !23
  br label %invoke.cont.i.i104

invoke.cont.i.i104:                               ; preds = %if.else.i.i.i101, %if.then.i.i.i99
  %retval.0.i.i.i102 = phi i32 [ %54, %if.then.i.i.i99 ], [ %55, %if.else.i.i.i101 ]
  %cmp3.i.i103 = icmp slt i32 %retval.0.i.i.i102, 1
  br i1 %cmp3.i.i103, label %if.then4.i.i105, label %_ZNSsD2Ev.exit106

if.then4.i.i105:                                  ; preds = %invoke.cont.i.i104
  call void @_ZNSs4_Rep10_M_destroyERKSaIcE(%"struct.std::basic_string<char, std::char_traits<char>, std::allocator<char> >::_Rep"* nonnull %51, %"class.std::ios_base::Init"* nonnull dereferenceable(1) %ref.tmp.i93) #3
  br label %_ZNSsD2Ev.exit106

_ZNSsD2Ev.exit106:                                ; preds = %if.then4.i.i105, %invoke.cont.i.i104, %lpad16
  call void @llvm.lifetime.end.p0i8(i64 1, i8* nonnull %52) #3
  br label %ehcleanup

ehcleanup:                                        ; preds = %_ZNSsD2Ev.exit106, %lpad14
  %exn.slot.0 = phi i8* [ %48, %_ZNSsD2Ev.exit106 ], [ %45, %lpad14 ]
  %ehselector.slot.0 = phi i32 [ %49, %_ZNSsD2Ev.exit106 ], [ %46, %lpad14 ]
  %_M_p.i.i.i108 = getelementptr inbounds %"class.std::basic_string", %"class.std::basic_string"* %agg.tmp10, i64 0, i32 0, i32 0
  %56 = load i8*, i8** %_M_p.i.i.i108, align 8, !tbaa !17
  %arrayidx.i.i109 = getelementptr inbounds i8, i8* %56, i64 -24
  %57 = bitcast i8* %arrayidx.i.i109 to %"struct.std::basic_string<char, std::char_traits<char>, std::allocator<char> >::_Rep"*
  %58 = getelementptr inbounds %"class.std::ios_base::Init", %"class.std::ios_base::Init"* %ref.tmp.i107, i64 0, i32 0
  call void @llvm.lifetime.start.p0i8(i64 1, i8* nonnull %58) #3
  %cmp.i.i110 = icmp eq i8* %arrayidx.i.i109, bitcast ([0 x i64]* @_ZNSs4_Rep20_S_empty_rep_storageE to i8*)
  br i1 %cmp.i.i110, label %_ZNSsD2Ev.exit120, label %if.then.i.i112, !prof !22

if.then.i.i112:                                   ; preds = %ehcleanup
  %_M_refcount.i.i111 = getelementptr inbounds i8, i8* %56, i64 -8
  %59 = bitcast i8* %_M_refcount.i.i111 to i32*
  br i1 icmp ne (i8* bitcast (i32 (i32*, void (i8*)*)* @__pthread_key_create to i8*), i8* null), label %if.then.i.i.i113, label %if.else.i.i.i115

if.then.i.i.i113:                                 ; preds = %if.then.i.i112
  %60 = atomicrmw volatile add i32* %59, i32 -1 acq_rel
  br label %invoke.cont.i.i118

if.else.i.i.i115:                                 ; preds = %if.then.i.i112
  %61 = load i32, i32* %59, align 4, !tbaa !23
  %add.i.i.i.i114 = add nsw i32 %61, -1
  store i32 %add.i.i.i.i114, i32* %59, align 4, !tbaa !23
  br label %invoke.cont.i.i118

invoke.cont.i.i118:                               ; preds = %if.else.i.i.i115, %if.then.i.i.i113
  %retval.0.i.i.i116 = phi i32 [ %60, %if.then.i.i.i113 ], [ %61, %if.else.i.i.i115 ]
  %cmp3.i.i117 = icmp slt i32 %retval.0.i.i.i116, 1
  br i1 %cmp3.i.i117, label %if.then4.i.i119, label %_ZNSsD2Ev.exit120

if.then4.i.i119:                                  ; preds = %invoke.cont.i.i118
  call void @_ZNSs4_Rep10_M_destroyERKSaIcE(%"struct.std::basic_string<char, std::char_traits<char>, std::allocator<char> >::_Rep"* nonnull %57, %"class.std::ios_base::Init"* nonnull dereferenceable(1) %ref.tmp.i107) #3
  br label %_ZNSsD2Ev.exit120

_ZNSsD2Ev.exit120:                                ; preds = %if.then4.i.i119, %invoke.cont.i.i118, %ehcleanup
  call void @llvm.lifetime.end.p0i8(i64 1, i8* nonnull %58) #3
  br label %ehcleanup20

ehcleanup20:                                      ; preds = %_ZNSsD2Ev.exit120, %lpad12
  %exn.slot.1 = phi i8* [ %exn.slot.0, %_ZNSsD2Ev.exit120 ], [ %42, %lpad12 ]
  %ehselector.slot.1 = phi i32 [ %ehselector.slot.0, %_ZNSsD2Ev.exit120 ], [ %43, %lpad12 ]
  call void @llvm.lifetime.end.p0i8(i64 1, i8* nonnull %3) #3
  %_M_p.i.i.i125 = getelementptr inbounds %"class.std::basic_string", %"class.std::basic_string"* %agg.tmp6, i64 0, i32 0, i32 0
  %62 = load i8*, i8** %_M_p.i.i.i125, align 8, !tbaa !17
  %arrayidx.i.i126 = getelementptr inbounds i8, i8* %62, i64 -24
  %63 = bitcast i8* %arrayidx.i.i126 to %"struct.std::basic_string<char, std::char_traits<char>, std::allocator<char> >::_Rep"*
  %64 = getelementptr inbounds %"class.std::ios_base::Init", %"class.std::ios_base::Init"* %ref.tmp.i124, i64 0, i32 0
  call void @llvm.lifetime.start.p0i8(i64 1, i8* nonnull %64) #3
  %cmp.i.i127 = icmp eq i8* %arrayidx.i.i126, bitcast ([0 x i64]* @_ZNSs4_Rep20_S_empty_rep_storageE to i8*)
  br i1 %cmp.i.i127, label %_ZNSsD2Ev.exit137, label %if.then.i.i129, !prof !22

if.then.i.i129:                                   ; preds = %ehcleanup20
  %_M_refcount.i.i128 = getelementptr inbounds i8, i8* %62, i64 -8
  %65 = bitcast i8* %_M_refcount.i.i128 to i32*
  br i1 icmp ne (i8* bitcast (i32 (i32*, void (i8*)*)* @__pthread_key_create to i8*), i8* null), label %if.then.i.i.i130, label %if.else.i.i.i132

if.then.i.i.i130:                                 ; preds = %if.then.i.i129
  %66 = atomicrmw volatile add i32* %65, i32 -1 acq_rel
  br label %invoke.cont.i.i135

if.else.i.i.i132:                                 ; preds = %if.then.i.i129
  %67 = load i32, i32* %65, align 4, !tbaa !23
  %add.i.i.i.i131 = add nsw i32 %67, -1
  store i32 %add.i.i.i.i131, i32* %65, align 4, !tbaa !23
  br label %invoke.cont.i.i135

invoke.cont.i.i135:                               ; preds = %if.else.i.i.i132, %if.then.i.i.i130
  %retval.0.i.i.i133 = phi i32 [ %66, %if.then.i.i.i130 ], [ %67, %if.else.i.i.i132 ]
  %cmp3.i.i134 = icmp slt i32 %retval.0.i.i.i133, 1
  br i1 %cmp3.i.i134, label %if.then4.i.i136, label %_ZNSsD2Ev.exit137

if.then4.i.i136:                                  ; preds = %invoke.cont.i.i135
  call void @_ZNSs4_Rep10_M_destroyERKSaIcE(%"struct.std::basic_string<char, std::char_traits<char>, std::allocator<char> >::_Rep"* nonnull %63, %"class.std::ios_base::Init"* nonnull dereferenceable(1) %ref.tmp.i124) #3
  br label %_ZNSsD2Ev.exit137

_ZNSsD2Ev.exit137:                                ; preds = %if.then4.i.i136, %invoke.cont.i.i135, %ehcleanup20
  call void @llvm.lifetime.end.p0i8(i64 1, i8* nonnull %64) #3
  br label %ehcleanup23

ehcleanup23:                                      ; preds = %_ZNSsD2Ev.exit137, %lpad8
  %exn.slot.2 = phi i8* [ %exn.slot.1, %_ZNSsD2Ev.exit137 ], [ %39, %lpad8 ]
  %ehselector.slot.2 = phi i32 [ %ehselector.slot.1, %_ZNSsD2Ev.exit137 ], [ %40, %lpad8 ]
  call void @llvm.lifetime.end.p0i8(i64 1, i8* nonnull %2) #3
  %_M_p.i.i.i139 = getelementptr inbounds %"class.std::basic_string", %"class.std::basic_string"* %agg.tmp, i64 0, i32 0, i32 0
  %68 = load i8*, i8** %_M_p.i.i.i139, align 8, !tbaa !17
  %arrayidx.i.i140 = getelementptr inbounds i8, i8* %68, i64 -24
  %69 = bitcast i8* %arrayidx.i.i140 to %"struct.std::basic_string<char, std::char_traits<char>, std::allocator<char> >::_Rep"*
  %70 = getelementptr inbounds %"class.std::ios_base::Init", %"class.std::ios_base::Init"* %ref.tmp.i138, i64 0, i32 0
  call void @llvm.lifetime.start.p0i8(i64 1, i8* nonnull %70) #3
  %cmp.i.i141 = icmp eq i8* %arrayidx.i.i140, bitcast ([0 x i64]* @_ZNSs4_Rep20_S_empty_rep_storageE to i8*)
  br i1 %cmp.i.i141, label %_ZNSsD2Ev.exit151, label %if.then.i.i143, !prof !22

if.then.i.i143:                                   ; preds = %ehcleanup23
  %_M_refcount.i.i142 = getelementptr inbounds i8, i8* %68, i64 -8
  %71 = bitcast i8* %_M_refcount.i.i142 to i32*
  br i1 icmp ne (i8* bitcast (i32 (i32*, void (i8*)*)* @__pthread_key_create to i8*), i8* null), label %if.then.i.i.i144, label %if.else.i.i.i146

if.then.i.i.i144:                                 ; preds = %if.then.i.i143
  %72 = atomicrmw volatile add i32* %71, i32 -1 acq_rel
  br label %invoke.cont.i.i149

if.else.i.i.i146:                                 ; preds = %if.then.i.i143
  %73 = load i32, i32* %71, align 4, !tbaa !23
  %add.i.i.i.i145 = add nsw i32 %73, -1
  store i32 %add.i.i.i.i145, i32* %71, align 4, !tbaa !23
  br label %invoke.cont.i.i149

invoke.cont.i.i149:                               ; preds = %if.else.i.i.i146, %if.then.i.i.i144
  %retval.0.i.i.i147 = phi i32 [ %72, %if.then.i.i.i144 ], [ %73, %if.else.i.i.i146 ]
  %cmp3.i.i148 = icmp slt i32 %retval.0.i.i.i147, 1
  br i1 %cmp3.i.i148, label %if.then4.i.i150, label %_ZNSsD2Ev.exit151

if.then4.i.i150:                                  ; preds = %invoke.cont.i.i149
  call void @_ZNSs4_Rep10_M_destroyERKSaIcE(%"struct.std::basic_string<char, std::char_traits<char>, std::allocator<char> >::_Rep"* nonnull %69, %"class.std::ios_base::Init"* nonnull dereferenceable(1) %ref.tmp.i138) #3
  br label %_ZNSsD2Ev.exit151

_ZNSsD2Ev.exit151:                                ; preds = %if.then4.i.i150, %invoke.cont.i.i149, %ehcleanup23
  call void @llvm.lifetime.end.p0i8(i64 1, i8* nonnull %70) #3
  br label %ehcleanup26

ehcleanup26:                                      ; preds = %_ZNSsD2Ev.exit151, %lpad
  %exn.slot.3 = phi i8* [ %exn.slot.2, %_ZNSsD2Ev.exit151 ], [ %36, %lpad ]
  %ehselector.slot.3 = phi i32 [ %ehselector.slot.2, %_ZNSsD2Ev.exit151 ], [ %37, %lpad ]
  call void @llvm.lifetime.end.p0i8(i64 1, i8* nonnull %1) #3
  call void @llvm.lifetime.end.p0i8(i64 8, i8* nonnull %0) #3
  %lpad.val = insertvalue { i8*, i32 } undef, i8* %exn.slot.3, 0
  %lpad.val39 = insertvalue { i8*, i32 } %lpad.val, i32 %ehselector.slot.3, 1
  resume { i8*, i32 } %lpad.val39

if.end:                                           ; preds = %_ZNSsD2Ev.exit92, %entry
  %cmp = icmp eq i32 %cond, 0
  %n1.n2 = select i1 %cmp, i8* %n1, i8* %n2
  %call31 = call i32 @omp_get_thread_num() #3
  %idxprom32 = sext i32 %call31 to i64
  %arrayidx33 = getelementptr inbounds [1024 x %"class.std::basic_ofstream"], [1024 x %"class.std::basic_ofstream"]* @f1, i64 0, i64 %idxprom32
  %74 = bitcast %"class.std::basic_ofstream"* %arrayidx33 to %"class.std::basic_ostream"*
  %call1.i165 = call dereferenceable(272) %"class.std::basic_ostream"* @_ZSt16__ostream_insertIcSt11char_traitsIcEERSt13basic_ostreamIT_T0_ES6_PKS3_l(%"class.std::basic_ostream"* nonnull dereferenceable(272) %74, i8* nonnull getelementptr inbounds ([3 x i8], [3 x i8]* @.str.8, i64 0, i64 0), i64 2)
  %tobool.i152 = icmp eq i8* %name, null
  br i1 %tobool.i152, label %if.then.i159, label %if.else.i162

if.then.i159:                                     ; preds = %if.end
  %75 = bitcast %"class.std::basic_ofstream"* %arrayidx33 to i8**
  %vtable.i153 = load i8*, i8** %75, align 16, !tbaa !6
  %vbase.offset.ptr.i154 = getelementptr i8, i8* %vtable.i153, i64 -24
  %76 = bitcast i8* %vbase.offset.ptr.i154 to i64*
  %vbase.offset.i155 = load i64, i64* %76, align 8
  %77 = bitcast %"class.std::basic_ofstream"* %arrayidx33 to i8*
  %add.ptr.i156 = getelementptr inbounds i8, i8* %77, i64 %vbase.offset.i155
  %78 = bitcast i8* %add.ptr.i156 to %"class.std::basic_ios"*
  %_M_streambuf_state.i.i.i157 = getelementptr inbounds i8, i8* %add.ptr.i156, i64 32
  %79 = bitcast i8* %_M_streambuf_state.i.i.i157 to i32*
  %80 = load i32, i32* %79, align 8, !tbaa !8
  %or.i.i.i158 = or i32 %80, 1
  call void @_ZNSt9basic_iosIcSt11char_traitsIcEE5clearESt12_Ios_Iostate(%"class.std::basic_ios"* nonnull %78, i32 %or.i.i.i158)
  br label %_ZStlsISt11char_traitsIcEERSt13basic_ostreamIcT_ES5_PKc.exit163

if.else.i162:                                     ; preds = %if.end
  %call.i.i160 = call i64 @strlen(i8* nonnull %name) #3
  %call1.i161 = call dereferenceable(272) %"class.std::basic_ostream"* @_ZSt16__ostream_insertIcSt11char_traitsIcEERSt13basic_ostreamIT_T0_ES6_PKS3_l(%"class.std::basic_ostream"* nonnull dereferenceable(272) %74, i8* nonnull %name, i64 %call.i.i160)
  br label %_ZStlsISt11char_traitsIcEERSt13basic_ostreamIcT_ES5_PKc.exit163

_ZStlsISt11char_traitsIcEERSt13basic_ostreamIcT_ES5_PKc.exit163: ; preds = %if.else.i162, %if.then.i159
  %call1.i122 = call dereferenceable(272) %"class.std::basic_ostream"* @_ZSt16__ostream_insertIcSt11char_traitsIcEERSt13basic_ostreamIT_T0_ES6_PKS3_l(%"class.std::basic_ostream"* nonnull dereferenceable(272) %74, i8* nonnull getelementptr inbounds ([2 x i8], [2 x i8]* @.str.9, i64 0, i64 0), i64 1)
  %tobool.i = icmp eq i8* %n1.n2, null
  br i1 %tobool.i, label %if.then.i, label %if.else.i

if.then.i:                                        ; preds = %_ZStlsISt11char_traitsIcEERSt13basic_ostreamIcT_ES5_PKc.exit163
  %81 = bitcast %"class.std::basic_ofstream"* %arrayidx33 to i8**
  %vtable.i = load i8*, i8** %81, align 16, !tbaa !6
  %vbase.offset.ptr.i = getelementptr i8, i8* %vtable.i, i64 -24
  %82 = bitcast i8* %vbase.offset.ptr.i to i64*
  %vbase.offset.i = load i64, i64* %82, align 8
  %83 = bitcast %"class.std::basic_ofstream"* %arrayidx33 to i8*
  %add.ptr.i = getelementptr inbounds i8, i8* %83, i64 %vbase.offset.i
  %84 = bitcast i8* %add.ptr.i to %"class.std::basic_ios"*
  %_M_streambuf_state.i.i.i = getelementptr inbounds i8, i8* %add.ptr.i, i64 32
  %85 = bitcast i8* %_M_streambuf_state.i.i.i to i32*
  %86 = load i32, i32* %85, align 8, !tbaa !8
  %or.i.i.i = or i32 %86, 1
  call void @_ZNSt9basic_iosIcSt11char_traitsIcEE5clearESt12_Ios_Iostate(%"class.std::basic_ios"* nonnull %84, i32 %or.i.i.i)
  br label %_ZStlsISt11char_traitsIcEERSt13basic_ostreamIcT_ES5_PKc.exit

if.else.i:                                        ; preds = %_ZStlsISt11char_traitsIcEERSt13basic_ostreamIcT_ES5_PKc.exit163
  %call.i.i42 = call i64 @strlen(i8* nonnull %n1.n2) #3
  %call1.i43 = call dereferenceable(272) %"class.std::basic_ostream"* @_ZSt16__ostream_insertIcSt11char_traitsIcEERSt13basic_ostreamIT_T0_ES6_PKS3_l(%"class.std::basic_ostream"* nonnull dereferenceable(272) %74, i8* nonnull %n1.n2, i64 %call.i.i42)
  br label %_ZStlsISt11char_traitsIcEERSt13basic_ostreamIcT_ES5_PKc.exit

_ZStlsISt11char_traitsIcEERSt13basic_ostreamIcT_ES5_PKc.exit: ; preds = %if.else.i, %if.then.i
  %call1.i = call dereferenceable(272) %"class.std::basic_ostream"* @_ZSt16__ostream_insertIcSt11char_traitsIcEERSt13basic_ostreamIT_T0_ES6_PKS3_l(%"class.std::basic_ostream"* nonnull dereferenceable(272) %74, i8* nonnull getelementptr inbounds ([2 x i8], [2 x i8]* @.str.1, i64 0, i64 0), i64 1)
  ret void
}

declare dso_local void @_ZNSsC1EPKcRKSaIcE(%"class.std::basic_string"*, i8*, %"class.std::ios_base::Init"* dereferenceable(1)) unnamed_addr #1

declare dso_local %"class.std::basic_filebuf"* @_ZNSt13basic_filebufIcSt11char_traitsIcEE4openEPKcSt13_Ios_Openmode(%"class.std::basic_filebuf"*, i8*, i32) local_unnamed_addr #1

; Function Attrs: argmemonly nounwind readonly
declare dso_local i64 @strlen(i8* nocapture) local_unnamed_addr #10

; Function Attrs: noinline uwtable
define dso_local void @printuBranch(i8* %name, i8* %kernel_type, i8* %run_dir, i8* %n1) #6 personality i8* bitcast (i32 (...)* @__gxx_personality_v0 to i8*) {
entry:
  %ref.tmp.i141 = alloca %"class.std::ios_base::Init", align 1
  %ref.tmp.i127 = alloca %"class.std::ios_base::Init", align 1
  %ref.tmp.i110 = alloca %"class.std::ios_base::Init", align 1
  %ref.tmp.i96 = alloca %"class.std::ios_base::Init", align 1
  %ref.tmp.i82 = alloca %"class.std::ios_base::Init", align 1
  %ref.tmp.i68 = alloca %"class.std::ios_base::Init", align 1
  %ref.tmp.i54 = alloca %"class.std::ios_base::Init", align 1
  %ref.tmp.i = alloca %"class.std::ios_base::Init", align 1
  %ref.tmp = alloca %"class.std::basic_string", align 8
  %agg.tmp = alloca %"class.std::basic_string", align 8
  %ref.tmp5 = alloca %"class.std::ios_base::Init", align 1
  %agg.tmp6 = alloca %"class.std::basic_string", align 8
  %ref.tmp7 = alloca %"class.std::ios_base::Init", align 1
  %agg.tmp10 = alloca %"class.std::basic_string", align 8
  %ref.tmp11 = alloca %"class.std::ios_base::Init", align 1
  %call = tail call i32 @omp_get_thread_num() #3
  %idxprom = sext i32 %call to i64
  %_M_file.i.i = getelementptr inbounds [1024 x %"class.std::basic_ofstream"], [1024 x %"class.std::basic_ofstream"]* @f1, i64 0, i64 %idxprom, i32 1, i32 2
  %call.i.i = tail call zeroext i1 @_ZNKSt12__basic_fileIcE7is_openEv(%"class.std::__basic_file"* nonnull %_M_file.i.i) #21
  br i1 %call.i.i, label %if.end, label %if.then

if.then:                                          ; preds = %entry
  %call2 = tail call i32 @omp_get_thread_num() #3
  %idxprom3 = sext i32 %call2 to i64
  %arrayidx4 = getelementptr inbounds [1024 x %"class.std::basic_ofstream"], [1024 x %"class.std::basic_ofstream"]* @f1, i64 0, i64 %idxprom3
  %0 = bitcast %"class.std::basic_string"* %ref.tmp to i8*
  call void @llvm.lifetime.start.p0i8(i64 8, i8* nonnull %0) #3
  %1 = getelementptr inbounds %"class.std::ios_base::Init", %"class.std::ios_base::Init"* %ref.tmp5, i64 0, i32 0
  call void @llvm.lifetime.start.p0i8(i64 1, i8* nonnull %1) #3
  invoke void @_ZNSsC1EPKcRKSaIcE(%"class.std::basic_string"* nonnull %agg.tmp, i8* %run_dir, %"class.std::ios_base::Init"* nonnull dereferenceable(1) %ref.tmp5)
          to label %invoke.cont unwind label %lpad

invoke.cont:                                      ; preds = %if.then
  %2 = getelementptr inbounds %"class.std::ios_base::Init", %"class.std::ios_base::Init"* %ref.tmp7, i64 0, i32 0
  call void @llvm.lifetime.start.p0i8(i64 1, i8* nonnull %2) #3
  invoke void @_ZNSsC1EPKcRKSaIcE(%"class.std::basic_string"* nonnull %agg.tmp6, i8* %kernel_type, %"class.std::ios_base::Init"* nonnull dereferenceable(1) %ref.tmp7)
          to label %invoke.cont9 unwind label %lpad8

invoke.cont9:                                     ; preds = %invoke.cont
  %3 = getelementptr inbounds %"class.std::ios_base::Init", %"class.std::ios_base::Init"* %ref.tmp11, i64 0, i32 0
  call void @llvm.lifetime.start.p0i8(i64 1, i8* nonnull %3) #3
  invoke void @_ZNSsC1EPKcRKSaIcE(%"class.std::basic_string"* nonnull %agg.tmp10, i8* getelementptr inbounds ([9 x i8], [9 x i8]* @.str.7, i64 0, i64 0), %"class.std::ios_base::Init"* nonnull dereferenceable(1) %ref.tmp11)
          to label %invoke.cont13 unwind label %lpad12

invoke.cont13:                                    ; preds = %invoke.cont9
  invoke void @_Z12get_dir_nameSsSsSs(%"class.std::basic_string"* nonnull sret %ref.tmp, %"class.std::basic_string"* nonnull %agg.tmp, %"class.std::basic_string"* nonnull %agg.tmp6, %"class.std::basic_string"* nonnull %agg.tmp10)
          to label %invoke.cont15 unwind label %lpad14

invoke.cont15:                                    ; preds = %invoke.cont13
  %_M_filebuf.i = getelementptr inbounds [1024 x %"class.std::basic_ofstream"], [1024 x %"class.std::basic_ofstream"]* @f1, i64 0, i64 %idxprom3, i32 1
  %_M_p.i.i.i.i = getelementptr inbounds %"class.std::basic_string", %"class.std::basic_string"* %ref.tmp, i64 0, i32 0, i32 0
  %4 = load i8*, i8** %_M_p.i.i.i.i, align 8, !tbaa !17
  %call2.i.i52 = invoke %"class.std::basic_filebuf"* @_ZNSt13basic_filebufIcSt11char_traitsIcEE4openEPKcSt13_Ios_Openmode(%"class.std::basic_filebuf"* nonnull %_M_filebuf.i, i8* %4, i32 17)
          to label %call2.i.i.noexc unwind label %lpad16

call2.i.i.noexc:                                  ; preds = %invoke.cont15
  %tobool.i47 = icmp eq %"class.std::basic_filebuf"* %call2.i.i52, null
  %5 = bitcast %"class.std::basic_ofstream"* %arrayidx4 to i8**
  %vtable3.i = load i8*, i8** %5, align 16, !tbaa !6
  %vbase.offset.ptr4.i = getelementptr i8, i8* %vtable3.i, i64 -24
  %6 = bitcast i8* %vbase.offset.ptr4.i to i64*
  %vbase.offset5.i = load i64, i64* %6, align 8
  %7 = bitcast %"class.std::basic_ofstream"* %arrayidx4 to i8*
  %add.ptr6.i = getelementptr inbounds i8, i8* %7, i64 %vbase.offset5.i
  %8 = bitcast i8* %add.ptr6.i to %"class.std::basic_ios"*
  br i1 %tobool.i47, label %if.then.i50, label %if.else.i51

if.then.i50:                                      ; preds = %call2.i.i.noexc
  %_M_streambuf_state.i.i.i48 = getelementptr inbounds i8, i8* %add.ptr6.i, i64 32
  %9 = bitcast i8* %_M_streambuf_state.i.i.i48 to i32*
  %10 = load i32, i32* %9, align 8, !tbaa !8
  %or.i.i.i49 = or i32 %10, 4
  invoke void @_ZNSt9basic_iosIcSt11char_traitsIcEE5clearESt12_Ios_Iostate(%"class.std::basic_ios"* nonnull %8, i32 %or.i.i.i49)
          to label %invoke.cont19 unwind label %lpad16

if.else.i51:                                      ; preds = %call2.i.i.noexc
  invoke void @_ZNSt9basic_iosIcSt11char_traitsIcEE5clearESt12_Ios_Iostate(%"class.std::basic_ios"* nonnull %8, i32 0)
          to label %invoke.cont19 unwind label %lpad16

invoke.cont19:                                    ; preds = %if.else.i51, %if.then.i50
  %11 = load i8*, i8** %_M_p.i.i.i.i, align 8, !tbaa !17
  %arrayidx.i.i = getelementptr inbounds i8, i8* %11, i64 -24
  %12 = bitcast i8* %arrayidx.i.i to %"struct.std::basic_string<char, std::char_traits<char>, std::allocator<char> >::_Rep"*
  %13 = getelementptr inbounds %"class.std::ios_base::Init", %"class.std::ios_base::Init"* %ref.tmp.i, i64 0, i32 0
  call void @llvm.lifetime.start.p0i8(i64 1, i8* nonnull %13) #3
  %cmp.i.i = icmp eq i8* %arrayidx.i.i, bitcast ([0 x i64]* @_ZNSs4_Rep20_S_empty_rep_storageE to i8*)
  br i1 %cmp.i.i, label %_ZNSsD2Ev.exit, label %if.then.i.i, !prof !22

if.then.i.i:                                      ; preds = %invoke.cont19
  %_M_refcount.i.i = getelementptr inbounds i8, i8* %11, i64 -8
  %14 = bitcast i8* %_M_refcount.i.i to i32*
  br i1 icmp ne (i8* bitcast (i32 (i32*, void (i8*)*)* @__pthread_key_create to i8*), i8* null), label %if.then.i.i.i, label %if.else.i.i.i

if.then.i.i.i:                                    ; preds = %if.then.i.i
  %15 = atomicrmw volatile add i32* %14, i32 -1 acq_rel
  br label %invoke.cont.i.i

if.else.i.i.i:                                    ; preds = %if.then.i.i
  %16 = load i32, i32* %14, align 4, !tbaa !23
  %add.i.i.i.i = add nsw i32 %16, -1
  store i32 %add.i.i.i.i, i32* %14, align 4, !tbaa !23
  br label %invoke.cont.i.i

invoke.cont.i.i:                                  ; preds = %if.else.i.i.i, %if.then.i.i.i
  %retval.0.i.i.i = phi i32 [ %15, %if.then.i.i.i ], [ %16, %if.else.i.i.i ]
  %cmp3.i.i = icmp slt i32 %retval.0.i.i.i, 1
  br i1 %cmp3.i.i, label %if.then4.i.i, label %_ZNSsD2Ev.exit

if.then4.i.i:                                     ; preds = %invoke.cont.i.i
  call void @_ZNSs4_Rep10_M_destroyERKSaIcE(%"struct.std::basic_string<char, std::char_traits<char>, std::allocator<char> >::_Rep"* nonnull %12, %"class.std::ios_base::Init"* nonnull dereferenceable(1) %ref.tmp.i) #3
  br label %_ZNSsD2Ev.exit

_ZNSsD2Ev.exit:                                   ; preds = %if.then4.i.i, %invoke.cont.i.i, %invoke.cont19
  call void @llvm.lifetime.end.p0i8(i64 1, i8* nonnull %13) #3
  %_M_p.i.i.i55 = getelementptr inbounds %"class.std::basic_string", %"class.std::basic_string"* %agg.tmp10, i64 0, i32 0, i32 0
  %17 = load i8*, i8** %_M_p.i.i.i55, align 8, !tbaa !17
  %arrayidx.i.i56 = getelementptr inbounds i8, i8* %17, i64 -24
  %18 = bitcast i8* %arrayidx.i.i56 to %"struct.std::basic_string<char, std::char_traits<char>, std::allocator<char> >::_Rep"*
  %19 = getelementptr inbounds %"class.std::ios_base::Init", %"class.std::ios_base::Init"* %ref.tmp.i54, i64 0, i32 0
  call void @llvm.lifetime.start.p0i8(i64 1, i8* nonnull %19) #3
  %cmp.i.i57 = icmp eq i8* %arrayidx.i.i56, bitcast ([0 x i64]* @_ZNSs4_Rep20_S_empty_rep_storageE to i8*)
  br i1 %cmp.i.i57, label %_ZNSsD2Ev.exit67, label %if.then.i.i59, !prof !22

if.then.i.i59:                                    ; preds = %_ZNSsD2Ev.exit
  %_M_refcount.i.i58 = getelementptr inbounds i8, i8* %17, i64 -8
  %20 = bitcast i8* %_M_refcount.i.i58 to i32*
  br i1 icmp ne (i8* bitcast (i32 (i32*, void (i8*)*)* @__pthread_key_create to i8*), i8* null), label %if.then.i.i.i60, label %if.else.i.i.i62

if.then.i.i.i60:                                  ; preds = %if.then.i.i59
  %21 = atomicrmw volatile add i32* %20, i32 -1 acq_rel
  br label %invoke.cont.i.i65

if.else.i.i.i62:                                  ; preds = %if.then.i.i59
  %22 = load i32, i32* %20, align 4, !tbaa !23
  %add.i.i.i.i61 = add nsw i32 %22, -1
  store i32 %add.i.i.i.i61, i32* %20, align 4, !tbaa !23
  br label %invoke.cont.i.i65

invoke.cont.i.i65:                                ; preds = %if.else.i.i.i62, %if.then.i.i.i60
  %retval.0.i.i.i63 = phi i32 [ %21, %if.then.i.i.i60 ], [ %22, %if.else.i.i.i62 ]
  %cmp3.i.i64 = icmp slt i32 %retval.0.i.i.i63, 1
  br i1 %cmp3.i.i64, label %if.then4.i.i66, label %_ZNSsD2Ev.exit67

if.then4.i.i66:                                   ; preds = %invoke.cont.i.i65
  call void @_ZNSs4_Rep10_M_destroyERKSaIcE(%"struct.std::basic_string<char, std::char_traits<char>, std::allocator<char> >::_Rep"* nonnull %18, %"class.std::ios_base::Init"* nonnull dereferenceable(1) %ref.tmp.i54) #3
  br label %_ZNSsD2Ev.exit67

_ZNSsD2Ev.exit67:                                 ; preds = %if.then4.i.i66, %invoke.cont.i.i65, %_ZNSsD2Ev.exit
  call void @llvm.lifetime.end.p0i8(i64 1, i8* nonnull %19) #3
  call void @llvm.lifetime.end.p0i8(i64 1, i8* nonnull %3) #3
  %_M_p.i.i.i69 = getelementptr inbounds %"class.std::basic_string", %"class.std::basic_string"* %agg.tmp6, i64 0, i32 0, i32 0
  %23 = load i8*, i8** %_M_p.i.i.i69, align 8, !tbaa !17
  %arrayidx.i.i70 = getelementptr inbounds i8, i8* %23, i64 -24
  %24 = bitcast i8* %arrayidx.i.i70 to %"struct.std::basic_string<char, std::char_traits<char>, std::allocator<char> >::_Rep"*
  %25 = getelementptr inbounds %"class.std::ios_base::Init", %"class.std::ios_base::Init"* %ref.tmp.i68, i64 0, i32 0
  call void @llvm.lifetime.start.p0i8(i64 1, i8* nonnull %25) #3
  %cmp.i.i71 = icmp eq i8* %arrayidx.i.i70, bitcast ([0 x i64]* @_ZNSs4_Rep20_S_empty_rep_storageE to i8*)
  br i1 %cmp.i.i71, label %_ZNSsD2Ev.exit81, label %if.then.i.i73, !prof !22

if.then.i.i73:                                    ; preds = %_ZNSsD2Ev.exit67
  %_M_refcount.i.i72 = getelementptr inbounds i8, i8* %23, i64 -8
  %26 = bitcast i8* %_M_refcount.i.i72 to i32*
  br i1 icmp ne (i8* bitcast (i32 (i32*, void (i8*)*)* @__pthread_key_create to i8*), i8* null), label %if.then.i.i.i74, label %if.else.i.i.i76

if.then.i.i.i74:                                  ; preds = %if.then.i.i73
  %27 = atomicrmw volatile add i32* %26, i32 -1 acq_rel
  br label %invoke.cont.i.i79

if.else.i.i.i76:                                  ; preds = %if.then.i.i73
  %28 = load i32, i32* %26, align 4, !tbaa !23
  %add.i.i.i.i75 = add nsw i32 %28, -1
  store i32 %add.i.i.i.i75, i32* %26, align 4, !tbaa !23
  br label %invoke.cont.i.i79

invoke.cont.i.i79:                                ; preds = %if.else.i.i.i76, %if.then.i.i.i74
  %retval.0.i.i.i77 = phi i32 [ %27, %if.then.i.i.i74 ], [ %28, %if.else.i.i.i76 ]
  %cmp3.i.i78 = icmp slt i32 %retval.0.i.i.i77, 1
  br i1 %cmp3.i.i78, label %if.then4.i.i80, label %_ZNSsD2Ev.exit81

if.then4.i.i80:                                   ; preds = %invoke.cont.i.i79
  call void @_ZNSs4_Rep10_M_destroyERKSaIcE(%"struct.std::basic_string<char, std::char_traits<char>, std::allocator<char> >::_Rep"* nonnull %24, %"class.std::ios_base::Init"* nonnull dereferenceable(1) %ref.tmp.i68) #3
  br label %_ZNSsD2Ev.exit81

_ZNSsD2Ev.exit81:                                 ; preds = %if.then4.i.i80, %invoke.cont.i.i79, %_ZNSsD2Ev.exit67
  call void @llvm.lifetime.end.p0i8(i64 1, i8* nonnull %25) #3
  call void @llvm.lifetime.end.p0i8(i64 1, i8* nonnull %2) #3
  %_M_p.i.i.i83 = getelementptr inbounds %"class.std::basic_string", %"class.std::basic_string"* %agg.tmp, i64 0, i32 0, i32 0
  %29 = load i8*, i8** %_M_p.i.i.i83, align 8, !tbaa !17
  %arrayidx.i.i84 = getelementptr inbounds i8, i8* %29, i64 -24
  %30 = bitcast i8* %arrayidx.i.i84 to %"struct.std::basic_string<char, std::char_traits<char>, std::allocator<char> >::_Rep"*
  %31 = getelementptr inbounds %"class.std::ios_base::Init", %"class.std::ios_base::Init"* %ref.tmp.i82, i64 0, i32 0
  call void @llvm.lifetime.start.p0i8(i64 1, i8* nonnull %31) #3
  %cmp.i.i85 = icmp eq i8* %arrayidx.i.i84, bitcast ([0 x i64]* @_ZNSs4_Rep20_S_empty_rep_storageE to i8*)
  br i1 %cmp.i.i85, label %_ZNSsD2Ev.exit95, label %if.then.i.i87, !prof !22

if.then.i.i87:                                    ; preds = %_ZNSsD2Ev.exit81
  %_M_refcount.i.i86 = getelementptr inbounds i8, i8* %29, i64 -8
  %32 = bitcast i8* %_M_refcount.i.i86 to i32*
  br i1 icmp ne (i8* bitcast (i32 (i32*, void (i8*)*)* @__pthread_key_create to i8*), i8* null), label %if.then.i.i.i88, label %if.else.i.i.i90

if.then.i.i.i88:                                  ; preds = %if.then.i.i87
  %33 = atomicrmw volatile add i32* %32, i32 -1 acq_rel
  br label %invoke.cont.i.i93

if.else.i.i.i90:                                  ; preds = %if.then.i.i87
  %34 = load i32, i32* %32, align 4, !tbaa !23
  %add.i.i.i.i89 = add nsw i32 %34, -1
  store i32 %add.i.i.i.i89, i32* %32, align 4, !tbaa !23
  br label %invoke.cont.i.i93

invoke.cont.i.i93:                                ; preds = %if.else.i.i.i90, %if.then.i.i.i88
  %retval.0.i.i.i91 = phi i32 [ %33, %if.then.i.i.i88 ], [ %34, %if.else.i.i.i90 ]
  %cmp3.i.i92 = icmp slt i32 %retval.0.i.i.i91, 1
  br i1 %cmp3.i.i92, label %if.then4.i.i94, label %_ZNSsD2Ev.exit95

if.then4.i.i94:                                   ; preds = %invoke.cont.i.i93
  call void @_ZNSs4_Rep10_M_destroyERKSaIcE(%"struct.std::basic_string<char, std::char_traits<char>, std::allocator<char> >::_Rep"* nonnull %30, %"class.std::ios_base::Init"* nonnull dereferenceable(1) %ref.tmp.i82) #3
  br label %_ZNSsD2Ev.exit95

_ZNSsD2Ev.exit95:                                 ; preds = %if.then4.i.i94, %invoke.cont.i.i93, %_ZNSsD2Ev.exit81
  call void @llvm.lifetime.end.p0i8(i64 1, i8* nonnull %31) #3
  call void @llvm.lifetime.end.p0i8(i64 1, i8* nonnull %1) #3
  call void @llvm.lifetime.end.p0i8(i64 8, i8* nonnull %0) #3
  br label %if.end

lpad:                                             ; preds = %if.then
  %35 = landingpad { i8*, i32 }
          cleanup
  %36 = extractvalue { i8*, i32 } %35, 0
  %37 = extractvalue { i8*, i32 } %35, 1
  br label %ehcleanup26

lpad8:                                            ; preds = %invoke.cont
  %38 = landingpad { i8*, i32 }
          cleanup
  %39 = extractvalue { i8*, i32 } %38, 0
  %40 = extractvalue { i8*, i32 } %38, 1
  br label %ehcleanup23

lpad12:                                           ; preds = %invoke.cont9
  %41 = landingpad { i8*, i32 }
          cleanup
  %42 = extractvalue { i8*, i32 } %41, 0
  %43 = extractvalue { i8*, i32 } %41, 1
  br label %ehcleanup20

lpad14:                                           ; preds = %invoke.cont13
  %44 = landingpad { i8*, i32 }
          cleanup
  %45 = extractvalue { i8*, i32 } %44, 0
  %46 = extractvalue { i8*, i32 } %44, 1
  br label %ehcleanup

lpad16:                                           ; preds = %if.else.i51, %if.then.i50, %invoke.cont15
  %47 = landingpad { i8*, i32 }
          cleanup
  %48 = extractvalue { i8*, i32 } %47, 0
  %49 = extractvalue { i8*, i32 } %47, 1
  %50 = load i8*, i8** %_M_p.i.i.i.i, align 8, !tbaa !17
  %arrayidx.i.i98 = getelementptr inbounds i8, i8* %50, i64 -24
  %51 = bitcast i8* %arrayidx.i.i98 to %"struct.std::basic_string<char, std::char_traits<char>, std::allocator<char> >::_Rep"*
  %52 = getelementptr inbounds %"class.std::ios_base::Init", %"class.std::ios_base::Init"* %ref.tmp.i96, i64 0, i32 0
  call void @llvm.lifetime.start.p0i8(i64 1, i8* nonnull %52) #3
  %cmp.i.i99 = icmp eq i8* %arrayidx.i.i98, bitcast ([0 x i64]* @_ZNSs4_Rep20_S_empty_rep_storageE to i8*)
  br i1 %cmp.i.i99, label %_ZNSsD2Ev.exit109, label %if.then.i.i101, !prof !22

if.then.i.i101:                                   ; preds = %lpad16
  %_M_refcount.i.i100 = getelementptr inbounds i8, i8* %50, i64 -8
  %53 = bitcast i8* %_M_refcount.i.i100 to i32*
  br i1 icmp ne (i8* bitcast (i32 (i32*, void (i8*)*)* @__pthread_key_create to i8*), i8* null), label %if.then.i.i.i102, label %if.else.i.i.i104

if.then.i.i.i102:                                 ; preds = %if.then.i.i101
  %54 = atomicrmw volatile add i32* %53, i32 -1 acq_rel
  br label %invoke.cont.i.i107

if.else.i.i.i104:                                 ; preds = %if.then.i.i101
  %55 = load i32, i32* %53, align 4, !tbaa !23
  %add.i.i.i.i103 = add nsw i32 %55, -1
  store i32 %add.i.i.i.i103, i32* %53, align 4, !tbaa !23
  br label %invoke.cont.i.i107

invoke.cont.i.i107:                               ; preds = %if.else.i.i.i104, %if.then.i.i.i102
  %retval.0.i.i.i105 = phi i32 [ %54, %if.then.i.i.i102 ], [ %55, %if.else.i.i.i104 ]
  %cmp3.i.i106 = icmp slt i32 %retval.0.i.i.i105, 1
  br i1 %cmp3.i.i106, label %if.then4.i.i108, label %_ZNSsD2Ev.exit109

if.then4.i.i108:                                  ; preds = %invoke.cont.i.i107
  call void @_ZNSs4_Rep10_M_destroyERKSaIcE(%"struct.std::basic_string<char, std::char_traits<char>, std::allocator<char> >::_Rep"* nonnull %51, %"class.std::ios_base::Init"* nonnull dereferenceable(1) %ref.tmp.i96) #3
  br label %_ZNSsD2Ev.exit109

_ZNSsD2Ev.exit109:                                ; preds = %if.then4.i.i108, %invoke.cont.i.i107, %lpad16
  call void @llvm.lifetime.end.p0i8(i64 1, i8* nonnull %52) #3
  br label %ehcleanup

ehcleanup:                                        ; preds = %_ZNSsD2Ev.exit109, %lpad14
  %exn.slot.0 = phi i8* [ %48, %_ZNSsD2Ev.exit109 ], [ %45, %lpad14 ]
  %ehselector.slot.0 = phi i32 [ %49, %_ZNSsD2Ev.exit109 ], [ %46, %lpad14 ]
  %_M_p.i.i.i111 = getelementptr inbounds %"class.std::basic_string", %"class.std::basic_string"* %agg.tmp10, i64 0, i32 0, i32 0
  %56 = load i8*, i8** %_M_p.i.i.i111, align 8, !tbaa !17
  %arrayidx.i.i112 = getelementptr inbounds i8, i8* %56, i64 -24
  %57 = bitcast i8* %arrayidx.i.i112 to %"struct.std::basic_string<char, std::char_traits<char>, std::allocator<char> >::_Rep"*
  %58 = getelementptr inbounds %"class.std::ios_base::Init", %"class.std::ios_base::Init"* %ref.tmp.i110, i64 0, i32 0
  call void @llvm.lifetime.start.p0i8(i64 1, i8* nonnull %58) #3
  %cmp.i.i113 = icmp eq i8* %arrayidx.i.i112, bitcast ([0 x i64]* @_ZNSs4_Rep20_S_empty_rep_storageE to i8*)
  br i1 %cmp.i.i113, label %_ZNSsD2Ev.exit123, label %if.then.i.i115, !prof !22

if.then.i.i115:                                   ; preds = %ehcleanup
  %_M_refcount.i.i114 = getelementptr inbounds i8, i8* %56, i64 -8
  %59 = bitcast i8* %_M_refcount.i.i114 to i32*
  br i1 icmp ne (i8* bitcast (i32 (i32*, void (i8*)*)* @__pthread_key_create to i8*), i8* null), label %if.then.i.i.i116, label %if.else.i.i.i118

if.then.i.i.i116:                                 ; preds = %if.then.i.i115
  %60 = atomicrmw volatile add i32* %59, i32 -1 acq_rel
  br label %invoke.cont.i.i121

if.else.i.i.i118:                                 ; preds = %if.then.i.i115
  %61 = load i32, i32* %59, align 4, !tbaa !23
  %add.i.i.i.i117 = add nsw i32 %61, -1
  store i32 %add.i.i.i.i117, i32* %59, align 4, !tbaa !23
  br label %invoke.cont.i.i121

invoke.cont.i.i121:                               ; preds = %if.else.i.i.i118, %if.then.i.i.i116
  %retval.0.i.i.i119 = phi i32 [ %60, %if.then.i.i.i116 ], [ %61, %if.else.i.i.i118 ]
  %cmp3.i.i120 = icmp slt i32 %retval.0.i.i.i119, 1
  br i1 %cmp3.i.i120, label %if.then4.i.i122, label %_ZNSsD2Ev.exit123

if.then4.i.i122:                                  ; preds = %invoke.cont.i.i121
  call void @_ZNSs4_Rep10_M_destroyERKSaIcE(%"struct.std::basic_string<char, std::char_traits<char>, std::allocator<char> >::_Rep"* nonnull %57, %"class.std::ios_base::Init"* nonnull dereferenceable(1) %ref.tmp.i110) #3
  br label %_ZNSsD2Ev.exit123

_ZNSsD2Ev.exit123:                                ; preds = %if.then4.i.i122, %invoke.cont.i.i121, %ehcleanup
  call void @llvm.lifetime.end.p0i8(i64 1, i8* nonnull %58) #3
  br label %ehcleanup20

ehcleanup20:                                      ; preds = %_ZNSsD2Ev.exit123, %lpad12
  %exn.slot.1 = phi i8* [ %exn.slot.0, %_ZNSsD2Ev.exit123 ], [ %42, %lpad12 ]
  %ehselector.slot.1 = phi i32 [ %ehselector.slot.0, %_ZNSsD2Ev.exit123 ], [ %43, %lpad12 ]
  call void @llvm.lifetime.end.p0i8(i64 1, i8* nonnull %3) #3
  %_M_p.i.i.i128 = getelementptr inbounds %"class.std::basic_string", %"class.std::basic_string"* %agg.tmp6, i64 0, i32 0, i32 0
  %62 = load i8*, i8** %_M_p.i.i.i128, align 8, !tbaa !17
  %arrayidx.i.i129 = getelementptr inbounds i8, i8* %62, i64 -24
  %63 = bitcast i8* %arrayidx.i.i129 to %"struct.std::basic_string<char, std::char_traits<char>, std::allocator<char> >::_Rep"*
  %64 = getelementptr inbounds %"class.std::ios_base::Init", %"class.std::ios_base::Init"* %ref.tmp.i127, i64 0, i32 0
  call void @llvm.lifetime.start.p0i8(i64 1, i8* nonnull %64) #3
  %cmp.i.i130 = icmp eq i8* %arrayidx.i.i129, bitcast ([0 x i64]* @_ZNSs4_Rep20_S_empty_rep_storageE to i8*)
  br i1 %cmp.i.i130, label %_ZNSsD2Ev.exit140, label %if.then.i.i132, !prof !22

if.then.i.i132:                                   ; preds = %ehcleanup20
  %_M_refcount.i.i131 = getelementptr inbounds i8, i8* %62, i64 -8
  %65 = bitcast i8* %_M_refcount.i.i131 to i32*
  br i1 icmp ne (i8* bitcast (i32 (i32*, void (i8*)*)* @__pthread_key_create to i8*), i8* null), label %if.then.i.i.i133, label %if.else.i.i.i135

if.then.i.i.i133:                                 ; preds = %if.then.i.i132
  %66 = atomicrmw volatile add i32* %65, i32 -1 acq_rel
  br label %invoke.cont.i.i138

if.else.i.i.i135:                                 ; preds = %if.then.i.i132
  %67 = load i32, i32* %65, align 4, !tbaa !23
  %add.i.i.i.i134 = add nsw i32 %67, -1
  store i32 %add.i.i.i.i134, i32* %65, align 4, !tbaa !23
  br label %invoke.cont.i.i138

invoke.cont.i.i138:                               ; preds = %if.else.i.i.i135, %if.then.i.i.i133
  %retval.0.i.i.i136 = phi i32 [ %66, %if.then.i.i.i133 ], [ %67, %if.else.i.i.i135 ]
  %cmp3.i.i137 = icmp slt i32 %retval.0.i.i.i136, 1
  br i1 %cmp3.i.i137, label %if.then4.i.i139, label %_ZNSsD2Ev.exit140

if.then4.i.i139:                                  ; preds = %invoke.cont.i.i138
  call void @_ZNSs4_Rep10_M_destroyERKSaIcE(%"struct.std::basic_string<char, std::char_traits<char>, std::allocator<char> >::_Rep"* nonnull %63, %"class.std::ios_base::Init"* nonnull dereferenceable(1) %ref.tmp.i127) #3
  br label %_ZNSsD2Ev.exit140

_ZNSsD2Ev.exit140:                                ; preds = %if.then4.i.i139, %invoke.cont.i.i138, %ehcleanup20
  call void @llvm.lifetime.end.p0i8(i64 1, i8* nonnull %64) #3
  br label %ehcleanup23

ehcleanup23:                                      ; preds = %_ZNSsD2Ev.exit140, %lpad8
  %exn.slot.2 = phi i8* [ %exn.slot.1, %_ZNSsD2Ev.exit140 ], [ %39, %lpad8 ]
  %ehselector.slot.2 = phi i32 [ %ehselector.slot.1, %_ZNSsD2Ev.exit140 ], [ %40, %lpad8 ]
  call void @llvm.lifetime.end.p0i8(i64 1, i8* nonnull %2) #3
  %_M_p.i.i.i142 = getelementptr inbounds %"class.std::basic_string", %"class.std::basic_string"* %agg.tmp, i64 0, i32 0, i32 0
  %68 = load i8*, i8** %_M_p.i.i.i142, align 8, !tbaa !17
  %arrayidx.i.i143 = getelementptr inbounds i8, i8* %68, i64 -24
  %69 = bitcast i8* %arrayidx.i.i143 to %"struct.std::basic_string<char, std::char_traits<char>, std::allocator<char> >::_Rep"*
  %70 = getelementptr inbounds %"class.std::ios_base::Init", %"class.std::ios_base::Init"* %ref.tmp.i141, i64 0, i32 0
  call void @llvm.lifetime.start.p0i8(i64 1, i8* nonnull %70) #3
  %cmp.i.i144 = icmp eq i8* %arrayidx.i.i143, bitcast ([0 x i64]* @_ZNSs4_Rep20_S_empty_rep_storageE to i8*)
  br i1 %cmp.i.i144, label %_ZNSsD2Ev.exit154, label %if.then.i.i146, !prof !22

if.then.i.i146:                                   ; preds = %ehcleanup23
  %_M_refcount.i.i145 = getelementptr inbounds i8, i8* %68, i64 -8
  %71 = bitcast i8* %_M_refcount.i.i145 to i32*
  br i1 icmp ne (i8* bitcast (i32 (i32*, void (i8*)*)* @__pthread_key_create to i8*), i8* null), label %if.then.i.i.i147, label %if.else.i.i.i149

if.then.i.i.i147:                                 ; preds = %if.then.i.i146
  %72 = atomicrmw volatile add i32* %71, i32 -1 acq_rel
  br label %invoke.cont.i.i152

if.else.i.i.i149:                                 ; preds = %if.then.i.i146
  %73 = load i32, i32* %71, align 4, !tbaa !23
  %add.i.i.i.i148 = add nsw i32 %73, -1
  store i32 %add.i.i.i.i148, i32* %71, align 4, !tbaa !23
  br label %invoke.cont.i.i152

invoke.cont.i.i152:                               ; preds = %if.else.i.i.i149, %if.then.i.i.i147
  %retval.0.i.i.i150 = phi i32 [ %72, %if.then.i.i.i147 ], [ %73, %if.else.i.i.i149 ]
  %cmp3.i.i151 = icmp slt i32 %retval.0.i.i.i150, 1
  br i1 %cmp3.i.i151, label %if.then4.i.i153, label %_ZNSsD2Ev.exit154

if.then4.i.i153:                                  ; preds = %invoke.cont.i.i152
  call void @_ZNSs4_Rep10_M_destroyERKSaIcE(%"struct.std::basic_string<char, std::char_traits<char>, std::allocator<char> >::_Rep"* nonnull %69, %"class.std::ios_base::Init"* nonnull dereferenceable(1) %ref.tmp.i141) #3
  br label %_ZNSsD2Ev.exit154

_ZNSsD2Ev.exit154:                                ; preds = %if.then4.i.i153, %invoke.cont.i.i152, %ehcleanup23
  call void @llvm.lifetime.end.p0i8(i64 1, i8* nonnull %70) #3
  br label %ehcleanup26

ehcleanup26:                                      ; preds = %_ZNSsD2Ev.exit154, %lpad
  %exn.slot.3 = phi i8* [ %exn.slot.2, %_ZNSsD2Ev.exit154 ], [ %36, %lpad ]
  %ehselector.slot.3 = phi i32 [ %ehselector.slot.2, %_ZNSsD2Ev.exit154 ], [ %37, %lpad ]
  call void @llvm.lifetime.end.p0i8(i64 1, i8* nonnull %1) #3
  call void @llvm.lifetime.end.p0i8(i64 8, i8* nonnull %0) #3
  %lpad.val = insertvalue { i8*, i32 } undef, i8* %exn.slot.3, 0
  %lpad.val43 = insertvalue { i8*, i32 } %lpad.val, i32 %ehselector.slot.3, 1
  resume { i8*, i32 } %lpad.val43

if.end:                                           ; preds = %_ZNSsD2Ev.exit95, %entry
  %call29 = call i32 @omp_get_thread_num() #3
  %idxprom30 = sext i32 %call29 to i64
  %_M_file.i.i167 = getelementptr inbounds [1024 x %"class.std::basic_ofstream"], [1024 x %"class.std::basic_ofstream"]* @f1, i64 0, i64 %idxprom30, i32 1, i32 2
  %call.i.i168 = call zeroext i1 @_ZNKSt12__basic_fileIcE7is_openEv(%"class.std::__basic_file"* nonnull %_M_file.i.i167) #21
  br i1 %call.i.i168, label %if.end34, label %if.then33

if.then33:                                        ; preds = %if.end
  call void @__assert_fail(i8* getelementptr inbounds ([6 x i8], [6 x i8]* @.str.10, i64 0, i64 0), i8* getelementptr inbounds ([10 x i8], [10 x i8]* @.str.3, i64 0, i64 0), i32 78, i8* getelementptr inbounds ([50 x i8], [50 x i8]* @__PRETTY_FUNCTION__.printuBranch, i64 0, i64 0)) #22
  unreachable

if.end34:                                         ; preds = %if.end
  %call35 = call i32 @omp_get_thread_num() #3
  %idxprom36 = sext i32 %call35 to i64
  %arrayidx37 = getelementptr inbounds [1024 x %"class.std::basic_ofstream"], [1024 x %"class.std::basic_ofstream"]* @f1, i64 0, i64 %idxprom36
  %74 = bitcast %"class.std::basic_ofstream"* %arrayidx37 to %"class.std::basic_ostream"*
  %call1.i170 = call dereferenceable(272) %"class.std::basic_ostream"* @_ZSt16__ostream_insertIcSt11char_traitsIcEERSt13basic_ostreamIT_T0_ES6_PKS3_l(%"class.std::basic_ostream"* nonnull dereferenceable(272) %74, i8* nonnull getelementptr inbounds ([3 x i8], [3 x i8]* @.str.11, i64 0, i64 0), i64 2)
  %tobool.i155 = icmp eq i8* %name, null
  br i1 %tobool.i155, label %if.then.i162, label %if.else.i165

if.then.i162:                                     ; preds = %if.end34
  %75 = bitcast %"class.std::basic_ofstream"* %arrayidx37 to i8**
  %vtable.i156 = load i8*, i8** %75, align 16, !tbaa !6
  %vbase.offset.ptr.i157 = getelementptr i8, i8* %vtable.i156, i64 -24
  %76 = bitcast i8* %vbase.offset.ptr.i157 to i64*
  %vbase.offset.i158 = load i64, i64* %76, align 8
  %77 = bitcast %"class.std::basic_ofstream"* %arrayidx37 to i8*
  %add.ptr.i159 = getelementptr inbounds i8, i8* %77, i64 %vbase.offset.i158
  %78 = bitcast i8* %add.ptr.i159 to %"class.std::basic_ios"*
  %_M_streambuf_state.i.i.i160 = getelementptr inbounds i8, i8* %add.ptr.i159, i64 32
  %79 = bitcast i8* %_M_streambuf_state.i.i.i160 to i32*
  %80 = load i32, i32* %79, align 8, !tbaa !8
  %or.i.i.i161 = or i32 %80, 1
  call void @_ZNSt9basic_iosIcSt11char_traitsIcEE5clearESt12_Ios_Iostate(%"class.std::basic_ios"* nonnull %78, i32 %or.i.i.i161)
  br label %_ZStlsISt11char_traitsIcEERSt13basic_ostreamIcT_ES5_PKc.exit166

if.else.i165:                                     ; preds = %if.end34
  %call.i.i163 = call i64 @strlen(i8* nonnull %name) #3
  %call1.i164 = call dereferenceable(272) %"class.std::basic_ostream"* @_ZSt16__ostream_insertIcSt11char_traitsIcEERSt13basic_ostreamIT_T0_ES6_PKS3_l(%"class.std::basic_ostream"* nonnull dereferenceable(272) %74, i8* nonnull %name, i64 %call.i.i163)
  br label %_ZStlsISt11char_traitsIcEERSt13basic_ostreamIcT_ES5_PKc.exit166

_ZStlsISt11char_traitsIcEERSt13basic_ostreamIcT_ES5_PKc.exit166: ; preds = %if.else.i165, %if.then.i162
  %call1.i125 = call dereferenceable(272) %"class.std::basic_ostream"* @_ZSt16__ostream_insertIcSt11char_traitsIcEERSt13basic_ostreamIT_T0_ES6_PKS3_l(%"class.std::basic_ostream"* nonnull dereferenceable(272) %74, i8* nonnull getelementptr inbounds ([2 x i8], [2 x i8]* @.str.9, i64 0, i64 0), i64 1)
  %tobool.i = icmp eq i8* %n1, null
  br i1 %tobool.i, label %if.then.i, label %if.else.i

if.then.i:                                        ; preds = %_ZStlsISt11char_traitsIcEERSt13basic_ostreamIcT_ES5_PKc.exit166
  %81 = bitcast %"class.std::basic_ofstream"* %arrayidx37 to i8**
  %vtable.i = load i8*, i8** %81, align 16, !tbaa !6
  %vbase.offset.ptr.i = getelementptr i8, i8* %vtable.i, i64 -24
  %82 = bitcast i8* %vbase.offset.ptr.i to i64*
  %vbase.offset.i = load i64, i64* %82, align 8
  %83 = bitcast %"class.std::basic_ofstream"* %arrayidx37 to i8*
  %add.ptr.i = getelementptr inbounds i8, i8* %83, i64 %vbase.offset.i
  %84 = bitcast i8* %add.ptr.i to %"class.std::basic_ios"*
  %_M_streambuf_state.i.i.i = getelementptr inbounds i8, i8* %add.ptr.i, i64 32
  %85 = bitcast i8* %_M_streambuf_state.i.i.i to i32*
  %86 = load i32, i32* %85, align 8, !tbaa !8
  %or.i.i.i = or i32 %86, 1
  call void @_ZNSt9basic_iosIcSt11char_traitsIcEE5clearESt12_Ios_Iostate(%"class.std::basic_ios"* nonnull %84, i32 %or.i.i.i)
  br label %_ZStlsISt11char_traitsIcEERSt13basic_ostreamIcT_ES5_PKc.exit

if.else.i:                                        ; preds = %_ZStlsISt11char_traitsIcEERSt13basic_ostreamIcT_ES5_PKc.exit166
  %call.i.i45 = call i64 @strlen(i8* nonnull %n1) #3
  %call1.i46 = call dereferenceable(272) %"class.std::basic_ostream"* @_ZSt16__ostream_insertIcSt11char_traitsIcEERSt13basic_ostreamIT_T0_ES6_PKS3_l(%"class.std::basic_ostream"* nonnull dereferenceable(272) %74, i8* nonnull %n1, i64 %call.i.i45)
  br label %_ZStlsISt11char_traitsIcEERSt13basic_ostreamIcT_ES5_PKc.exit

_ZStlsISt11char_traitsIcEERSt13basic_ostreamIcT_ES5_PKc.exit: ; preds = %if.else.i, %if.then.i
  %call1.i = call dereferenceable(272) %"class.std::basic_ostream"* @_ZSt16__ostream_insertIcSt11char_traitsIcEERSt13basic_ostreamIT_T0_ES6_PKS3_l(%"class.std::basic_ostream"* nonnull dereferenceable(272) %74, i8* nonnull getelementptr inbounds ([2 x i8], [2 x i8]* @.str.1, i64 0, i64 0), i64 1)
  ret void
}

; Function Attrs: noinline uwtable
define dso_local void @printMem(i8* %name, i8* %kernel_type, i8* %run_dir, i1 zeroext %type, i64 %addr, i32 %size) #6 personality i8* bitcast (i32 (...)* @__gxx_personality_v0 to i8*) {
entry:
  %ref.tmp.i171 = alloca %"class.std::ios_base::Init", align 1
  %ref.tmp.i157 = alloca %"class.std::ios_base::Init", align 1
  %ref.tmp.i143 = alloca %"class.std::ios_base::Init", align 1
  %ref.tmp.i129 = alloca %"class.std::ios_base::Init", align 1
  %ref.tmp.i115 = alloca %"class.std::ios_base::Init", align 1
  %ref.tmp.i90 = alloca %"class.std::ios_base::Init", align 1
  %ref.tmp.i76 = alloca %"class.std::ios_base::Init", align 1
  %ref.tmp.i = alloca %"class.std::ios_base::Init", align 1
  %fname = alloca %"class.std::basic_string", align 8
  %agg.tmp = alloca %"class.std::basic_string", align 8
  %ref.tmp = alloca %"class.std::ios_base::Init", align 1
  %agg.tmp6 = alloca %"class.std::basic_string", align 8
  %ref.tmp7 = alloca %"class.std::ios_base::Init", align 1
  %agg.tmp10 = alloca %"class.std::basic_string", align 8
  %ref.tmp11 = alloca %"class.std::ios_base::Init", align 1
  %0 = load i8, i8* @expert_mode, align 1, !tbaa !2, !range !24
  %tobool = icmp eq i8 %0, 0
  br i1 %tobool, label %if.then, label %if.end2

if.then:                                          ; preds = %entry
  %1 = load i64, i64* @remaining_mem_accesses, align 8, !tbaa !25
  %cmp = icmp slt i64 %1, 1
  br i1 %cmp, label %if.then1, label %if.end

if.then1:                                         ; preds = %if.then
  %call = tail call dereferenceable(272) %"class.std::basic_ostream"* @_ZStlsISt11char_traitsIcEERSt13basic_ostreamIcT_ES5_PKc(%"class.std::basic_ostream"* nonnull dereferenceable(272) @_ZSt4cout, i8* getelementptr inbounds ([66 x i8], [66 x i8]* @.str.12, i64 0, i64 0))
  tail call void @__assert_fail(i8* getelementptr inbounds ([6 x i8], [6 x i8]* @.str.10, i64 0, i64 0), i8* getelementptr inbounds ([10 x i8], [10 x i8]* @.str.3, i64 0, i64 0), i32 91, i8* getelementptr inbounds ([60 x i8], [60 x i8]* @__PRETTY_FUNCTION__.printMem, i64 0, i64 0)) #22
  unreachable

if.end:                                           ; preds = %if.then
  %dec = add nsw i64 %1, -1
  store i64 %dec, i64* @remaining_mem_accesses, align 8, !tbaa !25
  br label %if.end2

if.end2:                                          ; preds = %if.end, %entry
  %call3 = tail call i32 @omp_get_thread_num() #3
  %idxprom = sext i32 %call3 to i64
  %_M_file.i.i = getelementptr inbounds [1024 x %"class.std::basic_ofstream"], [1024 x %"class.std::basic_ofstream"]* @f2, i64 0, i64 %idxprom, i32 1, i32 2
  %call.i.i = tail call zeroext i1 @_ZNKSt12__basic_fileIcE7is_openEv(%"class.std::__basic_file"* nonnull %_M_file.i.i) #21
  br i1 %call.i.i, label %if.end38, label %if.then5

if.then5:                                         ; preds = %if.end2
  %2 = bitcast %"class.std::basic_string"* %fname to i8*
  call void @llvm.lifetime.start.p0i8(i64 8, i8* nonnull %2) #3
  %3 = getelementptr inbounds %"class.std::ios_base::Init", %"class.std::ios_base::Init"* %ref.tmp, i64 0, i32 0
  call void @llvm.lifetime.start.p0i8(i64 1, i8* nonnull %3) #3
  invoke void @_ZNSsC1EPKcRKSaIcE(%"class.std::basic_string"* nonnull %agg.tmp, i8* %run_dir, %"class.std::ios_base::Init"* nonnull dereferenceable(1) %ref.tmp)
          to label %invoke.cont unwind label %lpad

invoke.cont:                                      ; preds = %if.then5
  %4 = getelementptr inbounds %"class.std::ios_base::Init", %"class.std::ios_base::Init"* %ref.tmp7, i64 0, i32 0
  call void @llvm.lifetime.start.p0i8(i64 1, i8* nonnull %4) #3
  invoke void @_ZNSsC1EPKcRKSaIcE(%"class.std::basic_string"* nonnull %agg.tmp6, i8* %kernel_type, %"class.std::ios_base::Init"* nonnull dereferenceable(1) %ref.tmp7)
          to label %invoke.cont9 unwind label %lpad8

invoke.cont9:                                     ; preds = %invoke.cont
  %5 = getelementptr inbounds %"class.std::ios_base::Init", %"class.std::ios_base::Init"* %ref.tmp11, i64 0, i32 0
  call void @llvm.lifetime.start.p0i8(i64 1, i8* nonnull %5) #3
  invoke void @_ZNSsC1EPKcRKSaIcE(%"class.std::basic_string"* nonnull %agg.tmp10, i8* getelementptr inbounds ([8 x i8], [8 x i8]* @.str.13, i64 0, i64 0), %"class.std::ios_base::Init"* nonnull dereferenceable(1) %ref.tmp11)
          to label %invoke.cont13 unwind label %lpad12

invoke.cont13:                                    ; preds = %invoke.cont9
  invoke void @_Z12get_dir_nameSsSsSs(%"class.std::basic_string"* nonnull sret %fname, %"class.std::basic_string"* nonnull %agg.tmp, %"class.std::basic_string"* nonnull %agg.tmp6, %"class.std::basic_string"* nonnull %agg.tmp10)
          to label %invoke.cont15 unwind label %lpad14

invoke.cont15:                                    ; preds = %invoke.cont13
  %_M_p.i.i.i = getelementptr inbounds %"class.std::basic_string", %"class.std::basic_string"* %agg.tmp10, i64 0, i32 0, i32 0
  %6 = load i8*, i8** %_M_p.i.i.i, align 8, !tbaa !17
  %arrayidx.i.i = getelementptr inbounds i8, i8* %6, i64 -24
  %7 = bitcast i8* %arrayidx.i.i to %"struct.std::basic_string<char, std::char_traits<char>, std::allocator<char> >::_Rep"*
  %8 = getelementptr inbounds %"class.std::ios_base::Init", %"class.std::ios_base::Init"* %ref.tmp.i, i64 0, i32 0
  call void @llvm.lifetime.start.p0i8(i64 1, i8* nonnull %8) #3
  %cmp.i.i = icmp eq i8* %arrayidx.i.i, bitcast ([0 x i64]* @_ZNSs4_Rep20_S_empty_rep_storageE to i8*)
  br i1 %cmp.i.i, label %_ZNSsD2Ev.exit, label %if.then.i.i, !prof !22

if.then.i.i:                                      ; preds = %invoke.cont15
  %_M_refcount.i.i = getelementptr inbounds i8, i8* %6, i64 -8
  %9 = bitcast i8* %_M_refcount.i.i to i32*
  br i1 icmp ne (i8* bitcast (i32 (i32*, void (i8*)*)* @__pthread_key_create to i8*), i8* null), label %if.then.i.i.i, label %if.else.i.i.i

if.then.i.i.i:                                    ; preds = %if.then.i.i
  %10 = atomicrmw volatile add i32* %9, i32 -1 acq_rel
  br label %invoke.cont.i.i

if.else.i.i.i:                                    ; preds = %if.then.i.i
  %11 = load i32, i32* %9, align 4, !tbaa !23
  %add.i.i.i.i = add nsw i32 %11, -1
  store i32 %add.i.i.i.i, i32* %9, align 4, !tbaa !23
  br label %invoke.cont.i.i

invoke.cont.i.i:                                  ; preds = %if.else.i.i.i, %if.then.i.i.i
  %retval.0.i.i.i = phi i32 [ %10, %if.then.i.i.i ], [ %11, %if.else.i.i.i ]
  %cmp3.i.i = icmp slt i32 %retval.0.i.i.i, 1
  br i1 %cmp3.i.i, label %if.then4.i.i, label %_ZNSsD2Ev.exit

if.then4.i.i:                                     ; preds = %invoke.cont.i.i
  call void @_ZNSs4_Rep10_M_destroyERKSaIcE(%"struct.std::basic_string<char, std::char_traits<char>, std::allocator<char> >::_Rep"* nonnull %7, %"class.std::ios_base::Init"* nonnull dereferenceable(1) %ref.tmp.i) #3
  br label %_ZNSsD2Ev.exit

_ZNSsD2Ev.exit:                                   ; preds = %if.then4.i.i, %invoke.cont.i.i, %invoke.cont15
  call void @llvm.lifetime.end.p0i8(i64 1, i8* nonnull %8) #3
  call void @llvm.lifetime.end.p0i8(i64 1, i8* nonnull %5) #3
  %_M_p.i.i.i77 = getelementptr inbounds %"class.std::basic_string", %"class.std::basic_string"* %agg.tmp6, i64 0, i32 0, i32 0
  %12 = load i8*, i8** %_M_p.i.i.i77, align 8, !tbaa !17
  %arrayidx.i.i78 = getelementptr inbounds i8, i8* %12, i64 -24
  %13 = bitcast i8* %arrayidx.i.i78 to %"struct.std::basic_string<char, std::char_traits<char>, std::allocator<char> >::_Rep"*
  %14 = getelementptr inbounds %"class.std::ios_base::Init", %"class.std::ios_base::Init"* %ref.tmp.i76, i64 0, i32 0
  call void @llvm.lifetime.start.p0i8(i64 1, i8* nonnull %14) #3
  %cmp.i.i79 = icmp eq i8* %arrayidx.i.i78, bitcast ([0 x i64]* @_ZNSs4_Rep20_S_empty_rep_storageE to i8*)
  br i1 %cmp.i.i79, label %_ZNSsD2Ev.exit89, label %if.then.i.i81, !prof !22

if.then.i.i81:                                    ; preds = %_ZNSsD2Ev.exit
  %_M_refcount.i.i80 = getelementptr inbounds i8, i8* %12, i64 -8
  %15 = bitcast i8* %_M_refcount.i.i80 to i32*
  br i1 icmp ne (i8* bitcast (i32 (i32*, void (i8*)*)* @__pthread_key_create to i8*), i8* null), label %if.then.i.i.i82, label %if.else.i.i.i84

if.then.i.i.i82:                                  ; preds = %if.then.i.i81
  %16 = atomicrmw volatile add i32* %15, i32 -1 acq_rel
  br label %invoke.cont.i.i87

if.else.i.i.i84:                                  ; preds = %if.then.i.i81
  %17 = load i32, i32* %15, align 4, !tbaa !23
  %add.i.i.i.i83 = add nsw i32 %17, -1
  store i32 %add.i.i.i.i83, i32* %15, align 4, !tbaa !23
  br label %invoke.cont.i.i87

invoke.cont.i.i87:                                ; preds = %if.else.i.i.i84, %if.then.i.i.i82
  %retval.0.i.i.i85 = phi i32 [ %16, %if.then.i.i.i82 ], [ %17, %if.else.i.i.i84 ]
  %cmp3.i.i86 = icmp slt i32 %retval.0.i.i.i85, 1
  br i1 %cmp3.i.i86, label %if.then4.i.i88, label %_ZNSsD2Ev.exit89

if.then4.i.i88:                                   ; preds = %invoke.cont.i.i87
  call void @_ZNSs4_Rep10_M_destroyERKSaIcE(%"struct.std::basic_string<char, std::char_traits<char>, std::allocator<char> >::_Rep"* nonnull %13, %"class.std::ios_base::Init"* nonnull dereferenceable(1) %ref.tmp.i76) #3
  br label %_ZNSsD2Ev.exit89

_ZNSsD2Ev.exit89:                                 ; preds = %if.then4.i.i88, %invoke.cont.i.i87, %_ZNSsD2Ev.exit
  call void @llvm.lifetime.end.p0i8(i64 1, i8* nonnull %14) #3
  call void @llvm.lifetime.end.p0i8(i64 1, i8* nonnull %4) #3
  %_M_p.i.i.i91 = getelementptr inbounds %"class.std::basic_string", %"class.std::basic_string"* %agg.tmp, i64 0, i32 0, i32 0
  %18 = load i8*, i8** %_M_p.i.i.i91, align 8, !tbaa !17
  %arrayidx.i.i92 = getelementptr inbounds i8, i8* %18, i64 -24
  %19 = bitcast i8* %arrayidx.i.i92 to %"struct.std::basic_string<char, std::char_traits<char>, std::allocator<char> >::_Rep"*
  %20 = getelementptr inbounds %"class.std::ios_base::Init", %"class.std::ios_base::Init"* %ref.tmp.i90, i64 0, i32 0
  call void @llvm.lifetime.start.p0i8(i64 1, i8* nonnull %20) #3
  %cmp.i.i93 = icmp eq i8* %arrayidx.i.i92, bitcast ([0 x i64]* @_ZNSs4_Rep20_S_empty_rep_storageE to i8*)
  br i1 %cmp.i.i93, label %_ZNSsD2Ev.exit103, label %if.then.i.i95, !prof !22

if.then.i.i95:                                    ; preds = %_ZNSsD2Ev.exit89
  %_M_refcount.i.i94 = getelementptr inbounds i8, i8* %18, i64 -8
  %21 = bitcast i8* %_M_refcount.i.i94 to i32*
  br i1 icmp ne (i8* bitcast (i32 (i32*, void (i8*)*)* @__pthread_key_create to i8*), i8* null), label %if.then.i.i.i96, label %if.else.i.i.i98

if.then.i.i.i96:                                  ; preds = %if.then.i.i95
  %22 = atomicrmw volatile add i32* %21, i32 -1 acq_rel
  br label %invoke.cont.i.i101

if.else.i.i.i98:                                  ; preds = %if.then.i.i95
  %23 = load i32, i32* %21, align 4, !tbaa !23
  %add.i.i.i.i97 = add nsw i32 %23, -1
  store i32 %add.i.i.i.i97, i32* %21, align 4, !tbaa !23
  br label %invoke.cont.i.i101

invoke.cont.i.i101:                               ; preds = %if.else.i.i.i98, %if.then.i.i.i96
  %retval.0.i.i.i99 = phi i32 [ %22, %if.then.i.i.i96 ], [ %23, %if.else.i.i.i98 ]
  %cmp3.i.i100 = icmp slt i32 %retval.0.i.i.i99, 1
  br i1 %cmp3.i.i100, label %if.then4.i.i102, label %_ZNSsD2Ev.exit103

if.then4.i.i102:                                  ; preds = %invoke.cont.i.i101
  call void @_ZNSs4_Rep10_M_destroyERKSaIcE(%"struct.std::basic_string<char, std::char_traits<char>, std::allocator<char> >::_Rep"* nonnull %19, %"class.std::ios_base::Init"* nonnull dereferenceable(1) %ref.tmp.i90) #3
  br label %_ZNSsD2Ev.exit103

_ZNSsD2Ev.exit103:                                ; preds = %if.then4.i.i102, %invoke.cont.i.i101, %_ZNSsD2Ev.exit89
  call void @llvm.lifetime.end.p0i8(i64 1, i8* nonnull %20) #3
  call void @llvm.lifetime.end.p0i8(i64 1, i8* nonnull %3) #3
  %call23 = call i32 @omp_get_thread_num() #3
  %idxprom24 = sext i32 %call23 to i64
  %arrayidx25 = getelementptr inbounds [1024 x %"class.std::basic_ofstream"], [1024 x %"class.std::basic_ofstream"]* @f2, i64 0, i64 %idxprom24
  %24 = bitcast %"class.std::basic_ofstream"* %arrayidx25 to i8**
  %vtable = load i8*, i8** %24, align 16, !tbaa !6
  %vbase.offset.ptr = getelementptr i8, i8* %vtable, i64 -24
  %25 = bitcast i8* %vbase.offset.ptr to i64*
  %vbase.offset = load i64, i64* %25, align 8
  %26 = bitcast %"class.std::basic_ofstream"* %arrayidx25 to i8*
  %add.ptr = getelementptr inbounds i8, i8* %26, i64 %vbase.offset
  %27 = bitcast i8* %add.ptr to %"class.std::basic_ios"*
  %_M_exception.i = getelementptr inbounds i8, i8* %add.ptr, i64 28
  %28 = bitcast i8* %_M_exception.i to i32*
  store i32 5, i32* %28, align 4, !tbaa !26
  %_M_streambuf_state.i = getelementptr inbounds i8, i8* %add.ptr, i64 32
  %29 = bitcast i8* %_M_streambuf_state.i to i32*
  %30 = load i32, i32* %29, align 8, !tbaa !8
  invoke void @_ZNSt9basic_iosIcSt11char_traitsIcEE5clearESt12_Ios_Iostate(%"class.std::basic_ios"* nonnull %27, i32 %30)
          to label %invoke.cont29 unwind label %lpad26

invoke.cont29:                                    ; preds = %_ZNSsD2Ev.exit103
  %call30 = call i32 @omp_get_thread_num() #3
  %idxprom31 = sext i32 %call30 to i64
  %arrayidx32 = getelementptr inbounds [1024 x %"class.std::basic_ofstream"], [1024 x %"class.std::basic_ofstream"]* @f2, i64 0, i64 %idxprom31
  %_M_filebuf.i = getelementptr inbounds [1024 x %"class.std::basic_ofstream"], [1024 x %"class.std::basic_ofstream"]* @f2, i64 0, i64 %idxprom31, i32 1
  %_M_p.i.i.i.i = getelementptr inbounds %"class.std::basic_string", %"class.std::basic_string"* %fname, i64 0, i32 0, i32 0
  %31 = load i8*, i8** %_M_p.i.i.i.i, align 8, !tbaa !17
  %call2.i.i113 = invoke %"class.std::basic_filebuf"* @_ZNSt13basic_filebufIcSt11char_traitsIcEE4openEPKcSt13_Ios_Openmode(%"class.std::basic_filebuf"* nonnull %_M_filebuf.i, i8* %31, i32 17)
          to label %call2.i.i.noexc unwind label %lpad26

call2.i.i.noexc:                                  ; preds = %invoke.cont29
  %tobool.i108 = icmp eq %"class.std::basic_filebuf"* %call2.i.i113, null
  %32 = bitcast %"class.std::basic_ofstream"* %arrayidx32 to i8**
  %vtable3.i = load i8*, i8** %32, align 16, !tbaa !6
  %vbase.offset.ptr4.i = getelementptr i8, i8* %vtable3.i, i64 -24
  %33 = bitcast i8* %vbase.offset.ptr4.i to i64*
  %vbase.offset5.i = load i64, i64* %33, align 8
  %34 = bitcast %"class.std::basic_ofstream"* %arrayidx32 to i8*
  %add.ptr6.i = getelementptr inbounds i8, i8* %34, i64 %vbase.offset5.i
  %35 = bitcast i8* %add.ptr6.i to %"class.std::basic_ios"*
  br i1 %tobool.i108, label %if.then.i111, label %if.else.i112

if.then.i111:                                     ; preds = %call2.i.i.noexc
  %_M_streambuf_state.i.i.i109 = getelementptr inbounds i8, i8* %add.ptr6.i, i64 32
  %36 = bitcast i8* %_M_streambuf_state.i.i.i109 to i32*
  %37 = load i32, i32* %36, align 8, !tbaa !8
  %or.i.i.i110 = or i32 %37, 4
  invoke void @_ZNSt9basic_iosIcSt11char_traitsIcEE5clearESt12_Ios_Iostate(%"class.std::basic_ios"* nonnull %35, i32 %or.i.i.i110)
          to label %invoke.cont35 unwind label %lpad26

if.else.i112:                                     ; preds = %call2.i.i.noexc
  invoke void @_ZNSt9basic_iosIcSt11char_traitsIcEE5clearESt12_Ios_Iostate(%"class.std::basic_ios"* nonnull %35, i32 0)
          to label %invoke.cont35 unwind label %lpad26

invoke.cont35:                                    ; preds = %if.else.i112, %if.then.i111
  %38 = load i8*, i8** %_M_p.i.i.i.i, align 8, !tbaa !17
  %arrayidx.i.i117 = getelementptr inbounds i8, i8* %38, i64 -24
  %39 = bitcast i8* %arrayidx.i.i117 to %"struct.std::basic_string<char, std::char_traits<char>, std::allocator<char> >::_Rep"*
  %40 = getelementptr inbounds %"class.std::ios_base::Init", %"class.std::ios_base::Init"* %ref.tmp.i115, i64 0, i32 0
  call void @llvm.lifetime.start.p0i8(i64 1, i8* nonnull %40) #3
  %cmp.i.i118 = icmp eq i8* %arrayidx.i.i117, bitcast ([0 x i64]* @_ZNSs4_Rep20_S_empty_rep_storageE to i8*)
  br i1 %cmp.i.i118, label %_ZNSsD2Ev.exit128, label %if.then.i.i120, !prof !22

if.then.i.i120:                                   ; preds = %invoke.cont35
  %_M_refcount.i.i119 = getelementptr inbounds i8, i8* %38, i64 -8
  %41 = bitcast i8* %_M_refcount.i.i119 to i32*
  br i1 icmp ne (i8* bitcast (i32 (i32*, void (i8*)*)* @__pthread_key_create to i8*), i8* null), label %if.then.i.i.i121, label %if.else.i.i.i123

if.then.i.i.i121:                                 ; preds = %if.then.i.i120
  %42 = atomicrmw volatile add i32* %41, i32 -1 acq_rel
  br label %invoke.cont.i.i126

if.else.i.i.i123:                                 ; preds = %if.then.i.i120
  %43 = load i32, i32* %41, align 4, !tbaa !23
  %add.i.i.i.i122 = add nsw i32 %43, -1
  store i32 %add.i.i.i.i122, i32* %41, align 4, !tbaa !23
  br label %invoke.cont.i.i126

invoke.cont.i.i126:                               ; preds = %if.else.i.i.i123, %if.then.i.i.i121
  %retval.0.i.i.i124 = phi i32 [ %42, %if.then.i.i.i121 ], [ %43, %if.else.i.i.i123 ]
  %cmp3.i.i125 = icmp slt i32 %retval.0.i.i.i124, 1
  br i1 %cmp3.i.i125, label %if.then4.i.i127, label %_ZNSsD2Ev.exit128

if.then4.i.i127:                                  ; preds = %invoke.cont.i.i126
  call void @_ZNSs4_Rep10_M_destroyERKSaIcE(%"struct.std::basic_string<char, std::char_traits<char>, std::allocator<char> >::_Rep"* nonnull %39, %"class.std::ios_base::Init"* nonnull dereferenceable(1) %ref.tmp.i115) #3
  br label %_ZNSsD2Ev.exit128

_ZNSsD2Ev.exit128:                                ; preds = %if.then4.i.i127, %invoke.cont.i.i126, %invoke.cont35
  call void @llvm.lifetime.end.p0i8(i64 1, i8* nonnull %40) #3
  call void @llvm.lifetime.end.p0i8(i64 8, i8* nonnull %2) #3
  br label %if.end38

lpad:                                             ; preds = %if.then5
  %44 = landingpad { i8*, i32 }
          cleanup
  %45 = extractvalue { i8*, i32 } %44, 0
  %46 = extractvalue { i8*, i32 } %44, 1
  br label %ehcleanup37

lpad8:                                            ; preds = %invoke.cont
  %47 = landingpad { i8*, i32 }
          cleanup
  %48 = extractvalue { i8*, i32 } %47, 0
  %49 = extractvalue { i8*, i32 } %47, 1
  br label %ehcleanup18

lpad12:                                           ; preds = %invoke.cont9
  %50 = landingpad { i8*, i32 }
          cleanup
  %51 = extractvalue { i8*, i32 } %50, 0
  %52 = extractvalue { i8*, i32 } %50, 1
  br label %ehcleanup

lpad14:                                           ; preds = %invoke.cont13
  %53 = landingpad { i8*, i32 }
          cleanup
  %54 = extractvalue { i8*, i32 } %53, 0
  %55 = extractvalue { i8*, i32 } %53, 1
  %_M_p.i.i.i130 = getelementptr inbounds %"class.std::basic_string", %"class.std::basic_string"* %agg.tmp10, i64 0, i32 0, i32 0
  %56 = load i8*, i8** %_M_p.i.i.i130, align 8, !tbaa !17
  %arrayidx.i.i131 = getelementptr inbounds i8, i8* %56, i64 -24
  %57 = bitcast i8* %arrayidx.i.i131 to %"struct.std::basic_string<char, std::char_traits<char>, std::allocator<char> >::_Rep"*
  %58 = getelementptr inbounds %"class.std::ios_base::Init", %"class.std::ios_base::Init"* %ref.tmp.i129, i64 0, i32 0
  call void @llvm.lifetime.start.p0i8(i64 1, i8* nonnull %58) #3
  %cmp.i.i132 = icmp eq i8* %arrayidx.i.i131, bitcast ([0 x i64]* @_ZNSs4_Rep20_S_empty_rep_storageE to i8*)
  br i1 %cmp.i.i132, label %_ZNSsD2Ev.exit142, label %if.then.i.i134, !prof !22

if.then.i.i134:                                   ; preds = %lpad14
  %_M_refcount.i.i133 = getelementptr inbounds i8, i8* %56, i64 -8
  %59 = bitcast i8* %_M_refcount.i.i133 to i32*
  br i1 icmp ne (i8* bitcast (i32 (i32*, void (i8*)*)* @__pthread_key_create to i8*), i8* null), label %if.then.i.i.i135, label %if.else.i.i.i137

if.then.i.i.i135:                                 ; preds = %if.then.i.i134
  %60 = atomicrmw volatile add i32* %59, i32 -1 acq_rel
  br label %invoke.cont.i.i140

if.else.i.i.i137:                                 ; preds = %if.then.i.i134
  %61 = load i32, i32* %59, align 4, !tbaa !23
  %add.i.i.i.i136 = add nsw i32 %61, -1
  store i32 %add.i.i.i.i136, i32* %59, align 4, !tbaa !23
  br label %invoke.cont.i.i140

invoke.cont.i.i140:                               ; preds = %if.else.i.i.i137, %if.then.i.i.i135
  %retval.0.i.i.i138 = phi i32 [ %60, %if.then.i.i.i135 ], [ %61, %if.else.i.i.i137 ]
  %cmp3.i.i139 = icmp slt i32 %retval.0.i.i.i138, 1
  br i1 %cmp3.i.i139, label %if.then4.i.i141, label %_ZNSsD2Ev.exit142

if.then4.i.i141:                                  ; preds = %invoke.cont.i.i140
  call void @_ZNSs4_Rep10_M_destroyERKSaIcE(%"struct.std::basic_string<char, std::char_traits<char>, std::allocator<char> >::_Rep"* nonnull %57, %"class.std::ios_base::Init"* nonnull dereferenceable(1) %ref.tmp.i129) #3
  br label %_ZNSsD2Ev.exit142

_ZNSsD2Ev.exit142:                                ; preds = %if.then4.i.i141, %invoke.cont.i.i140, %lpad14
  call void @llvm.lifetime.end.p0i8(i64 1, i8* nonnull %58) #3
  br label %ehcleanup

ehcleanup:                                        ; preds = %_ZNSsD2Ev.exit142, %lpad12
  %exn.slot.0 = phi i8* [ %54, %_ZNSsD2Ev.exit142 ], [ %51, %lpad12 ]
  %ehselector.slot.0 = phi i32 [ %55, %_ZNSsD2Ev.exit142 ], [ %52, %lpad12 ]
  call void @llvm.lifetime.end.p0i8(i64 1, i8* nonnull %5) #3
  %_M_p.i.i.i144 = getelementptr inbounds %"class.std::basic_string", %"class.std::basic_string"* %agg.tmp6, i64 0, i32 0, i32 0
  %62 = load i8*, i8** %_M_p.i.i.i144, align 8, !tbaa !17
  %arrayidx.i.i145 = getelementptr inbounds i8, i8* %62, i64 -24
  %63 = bitcast i8* %arrayidx.i.i145 to %"struct.std::basic_string<char, std::char_traits<char>, std::allocator<char> >::_Rep"*
  %64 = getelementptr inbounds %"class.std::ios_base::Init", %"class.std::ios_base::Init"* %ref.tmp.i143, i64 0, i32 0
  call void @llvm.lifetime.start.p0i8(i64 1, i8* nonnull %64) #3
  %cmp.i.i146 = icmp eq i8* %arrayidx.i.i145, bitcast ([0 x i64]* @_ZNSs4_Rep20_S_empty_rep_storageE to i8*)
  br i1 %cmp.i.i146, label %_ZNSsD2Ev.exit156, label %if.then.i.i148, !prof !22

if.then.i.i148:                                   ; preds = %ehcleanup
  %_M_refcount.i.i147 = getelementptr inbounds i8, i8* %62, i64 -8
  %65 = bitcast i8* %_M_refcount.i.i147 to i32*
  br i1 icmp ne (i8* bitcast (i32 (i32*, void (i8*)*)* @__pthread_key_create to i8*), i8* null), label %if.then.i.i.i149, label %if.else.i.i.i151

if.then.i.i.i149:                                 ; preds = %if.then.i.i148
  %66 = atomicrmw volatile add i32* %65, i32 -1 acq_rel
  br label %invoke.cont.i.i154

if.else.i.i.i151:                                 ; preds = %if.then.i.i148
  %67 = load i32, i32* %65, align 4, !tbaa !23
  %add.i.i.i.i150 = add nsw i32 %67, -1
  store i32 %add.i.i.i.i150, i32* %65, align 4, !tbaa !23
  br label %invoke.cont.i.i154

invoke.cont.i.i154:                               ; preds = %if.else.i.i.i151, %if.then.i.i.i149
  %retval.0.i.i.i152 = phi i32 [ %66, %if.then.i.i.i149 ], [ %67, %if.else.i.i.i151 ]
  %cmp3.i.i153 = icmp slt i32 %retval.0.i.i.i152, 1
  br i1 %cmp3.i.i153, label %if.then4.i.i155, label %_ZNSsD2Ev.exit156

if.then4.i.i155:                                  ; preds = %invoke.cont.i.i154
  call void @_ZNSs4_Rep10_M_destroyERKSaIcE(%"struct.std::basic_string<char, std::char_traits<char>, std::allocator<char> >::_Rep"* nonnull %63, %"class.std::ios_base::Init"* nonnull dereferenceable(1) %ref.tmp.i143) #3
  br label %_ZNSsD2Ev.exit156

_ZNSsD2Ev.exit156:                                ; preds = %if.then4.i.i155, %invoke.cont.i.i154, %ehcleanup
  call void @llvm.lifetime.end.p0i8(i64 1, i8* nonnull %64) #3
  br label %ehcleanup18

ehcleanup18:                                      ; preds = %_ZNSsD2Ev.exit156, %lpad8
  %exn.slot.1 = phi i8* [ %exn.slot.0, %_ZNSsD2Ev.exit156 ], [ %48, %lpad8 ]
  %ehselector.slot.1 = phi i32 [ %ehselector.slot.0, %_ZNSsD2Ev.exit156 ], [ %49, %lpad8 ]
  call void @llvm.lifetime.end.p0i8(i64 1, i8* nonnull %4) #3
  %_M_p.i.i.i158 = getelementptr inbounds %"class.std::basic_string", %"class.std::basic_string"* %agg.tmp, i64 0, i32 0, i32 0
  %68 = load i8*, i8** %_M_p.i.i.i158, align 8, !tbaa !17
  %arrayidx.i.i159 = getelementptr inbounds i8, i8* %68, i64 -24
  %69 = bitcast i8* %arrayidx.i.i159 to %"struct.std::basic_string<char, std::char_traits<char>, std::allocator<char> >::_Rep"*
  %70 = getelementptr inbounds %"class.std::ios_base::Init", %"class.std::ios_base::Init"* %ref.tmp.i157, i64 0, i32 0
  call void @llvm.lifetime.start.p0i8(i64 1, i8* nonnull %70) #3
  %cmp.i.i160 = icmp eq i8* %arrayidx.i.i159, bitcast ([0 x i64]* @_ZNSs4_Rep20_S_empty_rep_storageE to i8*)
  br i1 %cmp.i.i160, label %_ZNSsD2Ev.exit170, label %if.then.i.i162, !prof !22

if.then.i.i162:                                   ; preds = %ehcleanup18
  %_M_refcount.i.i161 = getelementptr inbounds i8, i8* %68, i64 -8
  %71 = bitcast i8* %_M_refcount.i.i161 to i32*
  br i1 icmp ne (i8* bitcast (i32 (i32*, void (i8*)*)* @__pthread_key_create to i8*), i8* null), label %if.then.i.i.i163, label %if.else.i.i.i165

if.then.i.i.i163:                                 ; preds = %if.then.i.i162
  %72 = atomicrmw volatile add i32* %71, i32 -1 acq_rel
  br label %invoke.cont.i.i168

if.else.i.i.i165:                                 ; preds = %if.then.i.i162
  %73 = load i32, i32* %71, align 4, !tbaa !23
  %add.i.i.i.i164 = add nsw i32 %73, -1
  store i32 %add.i.i.i.i164, i32* %71, align 4, !tbaa !23
  br label %invoke.cont.i.i168

invoke.cont.i.i168:                               ; preds = %if.else.i.i.i165, %if.then.i.i.i163
  %retval.0.i.i.i166 = phi i32 [ %72, %if.then.i.i.i163 ], [ %73, %if.else.i.i.i165 ]
  %cmp3.i.i167 = icmp slt i32 %retval.0.i.i.i166, 1
  br i1 %cmp3.i.i167, label %if.then4.i.i169, label %_ZNSsD2Ev.exit170

if.then4.i.i169:                                  ; preds = %invoke.cont.i.i168
  call void @_ZNSs4_Rep10_M_destroyERKSaIcE(%"struct.std::basic_string<char, std::char_traits<char>, std::allocator<char> >::_Rep"* nonnull %69, %"class.std::ios_base::Init"* nonnull dereferenceable(1) %ref.tmp.i157) #3
  br label %_ZNSsD2Ev.exit170

_ZNSsD2Ev.exit170:                                ; preds = %if.then4.i.i169, %invoke.cont.i.i168, %ehcleanup18
  call void @llvm.lifetime.end.p0i8(i64 1, i8* nonnull %70) #3
  br label %ehcleanup37

lpad26:                                           ; preds = %if.else.i112, %if.then.i111, %invoke.cont29, %_ZNSsD2Ev.exit103
  %74 = landingpad { i8*, i32 }
          cleanup
  %75 = extractvalue { i8*, i32 } %74, 0
  %76 = extractvalue { i8*, i32 } %74, 1
  %_M_p.i.i.i172 = getelementptr inbounds %"class.std::basic_string", %"class.std::basic_string"* %fname, i64 0, i32 0, i32 0
  %77 = load i8*, i8** %_M_p.i.i.i172, align 8, !tbaa !17
  %arrayidx.i.i173 = getelementptr inbounds i8, i8* %77, i64 -24
  %78 = bitcast i8* %arrayidx.i.i173 to %"struct.std::basic_string<char, std::char_traits<char>, std::allocator<char> >::_Rep"*
  %79 = getelementptr inbounds %"class.std::ios_base::Init", %"class.std::ios_base::Init"* %ref.tmp.i171, i64 0, i32 0
  call void @llvm.lifetime.start.p0i8(i64 1, i8* nonnull %79) #3
  %cmp.i.i174 = icmp eq i8* %arrayidx.i.i173, bitcast ([0 x i64]* @_ZNSs4_Rep20_S_empty_rep_storageE to i8*)
  br i1 %cmp.i.i174, label %ehcleanup37, label %if.then.i.i176, !prof !22

if.then.i.i176:                                   ; preds = %lpad26
  %_M_refcount.i.i175 = getelementptr inbounds i8, i8* %77, i64 -8
  %80 = bitcast i8* %_M_refcount.i.i175 to i32*
  br i1 icmp ne (i8* bitcast (i32 (i32*, void (i8*)*)* @__pthread_key_create to i8*), i8* null), label %if.then.i.i.i177, label %if.else.i.i.i179

if.then.i.i.i177:                                 ; preds = %if.then.i.i176
  %81 = atomicrmw volatile add i32* %80, i32 -1 acq_rel
  br label %invoke.cont.i.i182

if.else.i.i.i179:                                 ; preds = %if.then.i.i176
  %82 = load i32, i32* %80, align 4, !tbaa !23
  %add.i.i.i.i178 = add nsw i32 %82, -1
  store i32 %add.i.i.i.i178, i32* %80, align 4, !tbaa !23
  br label %invoke.cont.i.i182

invoke.cont.i.i182:                               ; preds = %if.else.i.i.i179, %if.then.i.i.i177
  %retval.0.i.i.i180 = phi i32 [ %81, %if.then.i.i.i177 ], [ %82, %if.else.i.i.i179 ]
  %cmp3.i.i181 = icmp slt i32 %retval.0.i.i.i180, 1
  br i1 %cmp3.i.i181, label %if.then4.i.i183, label %ehcleanup37

if.then4.i.i183:                                  ; preds = %invoke.cont.i.i182
  call void @_ZNSs4_Rep10_M_destroyERKSaIcE(%"struct.std::basic_string<char, std::char_traits<char>, std::allocator<char> >::_Rep"* nonnull %78, %"class.std::ios_base::Init"* nonnull dereferenceable(1) %ref.tmp.i171) #3
  br label %ehcleanup37

ehcleanup37:                                      ; preds = %if.then4.i.i183, %invoke.cont.i.i182, %lpad26, %_ZNSsD2Ev.exit170, %lpad
  %.sink = phi i8* [ %3, %_ZNSsD2Ev.exit170 ], [ %3, %lpad ], [ %79, %lpad26 ], [ %79, %invoke.cont.i.i182 ], [ %79, %if.then4.i.i183 ]
  %exn.slot.3 = phi i8* [ %exn.slot.1, %_ZNSsD2Ev.exit170 ], [ %45, %lpad ], [ %75, %lpad26 ], [ %75, %invoke.cont.i.i182 ], [ %75, %if.then4.i.i183 ]
  %ehselector.slot.3 = phi i32 [ %ehselector.slot.1, %_ZNSsD2Ev.exit170 ], [ %46, %lpad ], [ %76, %lpad26 ], [ %76, %invoke.cont.i.i182 ], [ %76, %if.then4.i.i183 ]
  call void @llvm.lifetime.end.p0i8(i64 1, i8* nonnull %.sink) #3
  call void @llvm.lifetime.end.p0i8(i64 8, i8* nonnull %2) #3
  %lpad.val = insertvalue { i8*, i32 } undef, i8* %exn.slot.3, 0
  %lpad.val68 = insertvalue { i8*, i32 } %lpad.val, i32 %ehselector.slot.3, 1
  resume { i8*, i32 } %lpad.val68

if.end38:                                         ; preds = %_ZNSsD2Ev.exit128, %if.end2
  %call56 = call i32 @omp_get_thread_num() #3
  %idxprom57 = sext i32 %call56 to i64
  %arrayidx58 = getelementptr inbounds [1024 x %"class.std::basic_ofstream"], [1024 x %"class.std::basic_ofstream"]* @f2, i64 0, i64 %idxprom57
  %83 = bitcast %"class.std::basic_ofstream"* %arrayidx58 to %"class.std::basic_ostream"*
  br i1 %type, label %if.then55, label %if.then41

if.then41:                                        ; preds = %if.end38
  %call1.i186 = call dereferenceable(272) %"class.std::basic_ostream"* @_ZSt16__ostream_insertIcSt11char_traitsIcEERSt13basic_ostreamIT_T0_ES6_PKS3_l(%"class.std::basic_ostream"* nonnull dereferenceable(272) %83, i8* nonnull getelementptr inbounds ([3 x i8], [3 x i8]* @.str.14, i64 0, i64 0), i64 2)
  %tobool.i188 = icmp eq i8* %name, null
  br i1 %tobool.i188, label %if.then.i195, label %if.else.i198

if.then.i195:                                     ; preds = %if.then41
  %84 = bitcast %"class.std::basic_ofstream"* %arrayidx58 to i8**
  %vtable.i189 = load i8*, i8** %84, align 16, !tbaa !6
  %vbase.offset.ptr.i190 = getelementptr i8, i8* %vtable.i189, i64 -24
  %85 = bitcast i8* %vbase.offset.ptr.i190 to i64*
  %vbase.offset.i191 = load i64, i64* %85, align 8
  %86 = bitcast %"class.std::basic_ofstream"* %arrayidx58 to i8*
  %add.ptr.i192 = getelementptr inbounds i8, i8* %86, i64 %vbase.offset.i191
  %87 = bitcast i8* %add.ptr.i192 to %"class.std::basic_ios"*
  %_M_streambuf_state.i.i.i193 = getelementptr inbounds i8, i8* %add.ptr.i192, i64 32
  %88 = bitcast i8* %_M_streambuf_state.i.i.i193 to i32*
  %89 = load i32, i32* %88, align 8, !tbaa !8
  %or.i.i.i194 = or i32 %89, 1
  call void @_ZNSt9basic_iosIcSt11char_traitsIcEE5clearESt12_Ios_Iostate(%"class.std::basic_ios"* nonnull %87, i32 %or.i.i.i194)
  br label %if.end67

if.else.i198:                                     ; preds = %if.then41
  %call.i.i196 = call i64 @strlen(i8* nonnull %name) #3
  %call1.i197 = call dereferenceable(272) %"class.std::basic_ostream"* @_ZSt16__ostream_insertIcSt11char_traitsIcEERSt13basic_ostreamIT_T0_ES6_PKS3_l(%"class.std::basic_ostream"* nonnull dereferenceable(272) %83, i8* nonnull %name, i64 %call.i.i196)
  br label %if.end67

if.then55:                                        ; preds = %if.end38
  %call1.i211 = call dereferenceable(272) %"class.std::basic_ostream"* @_ZSt16__ostream_insertIcSt11char_traitsIcEERSt13basic_ostreamIT_T0_ES6_PKS3_l(%"class.std::basic_ostream"* nonnull dereferenceable(272) %83, i8* nonnull getelementptr inbounds ([3 x i8], [3 x i8]* @.str.15, i64 0, i64 0), i64 2)
  %tobool.i = icmp eq i8* %name, null
  br i1 %tobool.i, label %if.then.i, label %if.else.i

if.then.i:                                        ; preds = %if.then55
  %90 = bitcast %"class.std::basic_ofstream"* %arrayidx58 to i8**
  %vtable.i = load i8*, i8** %90, align 16, !tbaa !6
  %vbase.offset.ptr.i = getelementptr i8, i8* %vtable.i, i64 -24
  %91 = bitcast i8* %vbase.offset.ptr.i to i64*
  %vbase.offset.i = load i64, i64* %91, align 8
  %92 = bitcast %"class.std::basic_ofstream"* %arrayidx58 to i8*
  %add.ptr.i = getelementptr inbounds i8, i8* %92, i64 %vbase.offset.i
  %93 = bitcast i8* %add.ptr.i to %"class.std::basic_ios"*
  %_M_streambuf_state.i.i.i = getelementptr inbounds i8, i8* %add.ptr.i, i64 32
  %94 = bitcast i8* %_M_streambuf_state.i.i.i to i32*
  %95 = load i32, i32* %94, align 8, !tbaa !8
  %or.i.i.i = or i32 %95, 1
  call void @_ZNSt9basic_iosIcSt11char_traitsIcEE5clearESt12_Ios_Iostate(%"class.std::basic_ios"* nonnull %93, i32 %or.i.i.i)
  br label %if.end67

if.else.i:                                        ; preds = %if.then55
  %call.i.i106 = call i64 @strlen(i8* nonnull %name) #3
  %call1.i107 = call dereferenceable(272) %"class.std::basic_ostream"* @_ZSt16__ostream_insertIcSt11char_traitsIcEERSt13basic_ostreamIT_T0_ES6_PKS3_l(%"class.std::basic_ostream"* nonnull dereferenceable(272) %83, i8* nonnull %name, i64 %call.i.i106)
  br label %if.end67

if.end67:                                         ; preds = %if.else.i, %if.then.i, %if.else.i198, %if.then.i195
  %call1.i105 = call dereferenceable(272) %"class.std::basic_ostream"* @_ZSt16__ostream_insertIcSt11char_traitsIcEERSt13basic_ostreamIT_T0_ES6_PKS3_l(%"class.std::basic_ostream"* nonnull dereferenceable(272) %83, i8* nonnull getelementptr inbounds ([2 x i8], [2 x i8]* @.str.9, i64 0, i64 0), i64 1)
  %call.i = call dereferenceable(272) %"class.std::basic_ostream"* @_ZNSo9_M_insertIxEERSoT_(%"class.std::basic_ostream"* nonnull %83, i64 %addr)
  %call1.i75 = call dereferenceable(272) %"class.std::basic_ostream"* @_ZSt16__ostream_insertIcSt11char_traitsIcEERSt13basic_ostreamIT_T0_ES6_PKS3_l(%"class.std::basic_ostream"* nonnull dereferenceable(272) %call.i, i8* nonnull getelementptr inbounds ([2 x i8], [2 x i8]* @.str.9, i64 0, i64 0), i64 1)
  %call64 = call dereferenceable(272) %"class.std::basic_ostream"* @_ZNSolsEi(%"class.std::basic_ostream"* nonnull %call.i, i32 %size)
  %call1.i = call dereferenceable(272) %"class.std::basic_ostream"* @_ZSt16__ostream_insertIcSt11char_traitsIcEERSt13basic_ostreamIT_T0_ES6_PKS3_l(%"class.std::basic_ostream"* nonnull dereferenceable(272) %call64, i8* nonnull getelementptr inbounds ([2 x i8], [2 x i8]* @.str.1, i64 0, i64 0), i64 1)
  ret void
}

declare dso_local dereferenceable(272) %"class.std::basic_ostream"* @_ZNSo9_M_insertIxEERSoT_(%"class.std::basic_ostream"*, i64) local_unnamed_addr #1

; Function Attrs: noinline uwtable
define dso_local void @print_matmul(i8* %acc_kernel_name, i8* %kernel_type, i8* %run_dir, i8* %node_id, i32 %rowsA, i32 %colsA, i32 %rowsB, i32 %colsB, i32 %batch_size) #6 personality i8* bitcast (i32 (...)* @__gxx_personality_v0 to i8*) {
entry:
  %ref.tmp.i142 = alloca %"class.std::ios_base::Init", align 1
  %ref.tmp.i125 = alloca %"class.std::ios_base::Init", align 1
  %ref.tmp.i111 = alloca %"class.std::ios_base::Init", align 1
  %ref.tmp.i97 = alloca %"class.std::ios_base::Init", align 1
  %ref.tmp.i80 = alloca %"class.std::ios_base::Init", align 1
  %ref.tmp.i66 = alloca %"class.std::ios_base::Init", align 1
  %ref.tmp.i52 = alloca %"class.std::ios_base::Init", align 1
  %ref.tmp.i = alloca %"class.std::ios_base::Init", align 1
  %ref.tmp = alloca %"class.std::basic_string", align 8
  %agg.tmp = alloca %"class.std::basic_string", align 8
  %ref.tmp5 = alloca %"class.std::ios_base::Init", align 1
  %agg.tmp6 = alloca %"class.std::basic_string", align 8
  %ref.tmp7 = alloca %"class.std::ios_base::Init", align 1
  %agg.tmp10 = alloca %"class.std::basic_string", align 8
  %ref.tmp11 = alloca %"class.std::ios_base::Init", align 1
  %call = tail call i32 @omp_get_thread_num() #3
  %idxprom = sext i32 %call to i64
  %_M_file.i.i = getelementptr inbounds [1024 x %"class.std::basic_ofstream"], [1024 x %"class.std::basic_ofstream"]* @f3, i64 0, i64 %idxprom, i32 1, i32 2
  %call.i.i = tail call zeroext i1 @_ZNKSt12__basic_fileIcE7is_openEv(%"class.std::__basic_file"* nonnull %_M_file.i.i) #21
  br i1 %call.i.i, label %if.end, label %if.then

if.then:                                          ; preds = %entry
  %call2 = tail call i32 @omp_get_thread_num() #3
  %idxprom3 = sext i32 %call2 to i64
  %arrayidx4 = getelementptr inbounds [1024 x %"class.std::basic_ofstream"], [1024 x %"class.std::basic_ofstream"]* @f3, i64 0, i64 %idxprom3
  %0 = bitcast %"class.std::basic_string"* %ref.tmp to i8*
  call void @llvm.lifetime.start.p0i8(i64 8, i8* nonnull %0) #3
  %1 = getelementptr inbounds %"class.std::ios_base::Init", %"class.std::ios_base::Init"* %ref.tmp5, i64 0, i32 0
  call void @llvm.lifetime.start.p0i8(i64 1, i8* nonnull %1) #3
  invoke void @_ZNSsC1EPKcRKSaIcE(%"class.std::basic_string"* nonnull %agg.tmp, i8* %run_dir, %"class.std::ios_base::Init"* nonnull dereferenceable(1) %ref.tmp5)
          to label %invoke.cont unwind label %lpad

invoke.cont:                                      ; preds = %if.then
  %2 = getelementptr inbounds %"class.std::ios_base::Init", %"class.std::ios_base::Init"* %ref.tmp7, i64 0, i32 0
  call void @llvm.lifetime.start.p0i8(i64 1, i8* nonnull %2) #3
  invoke void @_ZNSsC1EPKcRKSaIcE(%"class.std::basic_string"* nonnull %agg.tmp6, i8* %kernel_type, %"class.std::ios_base::Init"* nonnull dereferenceable(1) %ref.tmp7)
          to label %invoke.cont9 unwind label %lpad8

invoke.cont9:                                     ; preds = %invoke.cont
  %3 = getelementptr inbounds %"class.std::ios_base::Init", %"class.std::ios_base::Init"* %ref.tmp11, i64 0, i32 0
  call void @llvm.lifetime.start.p0i8(i64 1, i8* nonnull %3) #3
  invoke void @_ZNSsC1EPKcRKSaIcE(%"class.std::basic_string"* nonnull %agg.tmp10, i8* getelementptr inbounds ([8 x i8], [8 x i8]* @.str.16, i64 0, i64 0), %"class.std::ios_base::Init"* nonnull dereferenceable(1) %ref.tmp11)
          to label %invoke.cont13 unwind label %lpad12

invoke.cont13:                                    ; preds = %invoke.cont9
  invoke void @_Z12get_dir_nameSsSsSs(%"class.std::basic_string"* nonnull sret %ref.tmp, %"class.std::basic_string"* nonnull %agg.tmp, %"class.std::basic_string"* nonnull %agg.tmp6, %"class.std::basic_string"* nonnull %agg.tmp10)
          to label %invoke.cont15 unwind label %lpad14

invoke.cont15:                                    ; preds = %invoke.cont13
  %_M_filebuf.i = getelementptr inbounds [1024 x %"class.std::basic_ofstream"], [1024 x %"class.std::basic_ofstream"]* @f3, i64 0, i64 %idxprom3, i32 1
  %_M_p.i.i.i.i = getelementptr inbounds %"class.std::basic_string", %"class.std::basic_string"* %ref.tmp, i64 0, i32 0, i32 0
  %4 = load i8*, i8** %_M_p.i.i.i.i, align 8, !tbaa !17
  %call2.i.i50 = invoke %"class.std::basic_filebuf"* @_ZNSt13basic_filebufIcSt11char_traitsIcEE4openEPKcSt13_Ios_Openmode(%"class.std::basic_filebuf"* nonnull %_M_filebuf.i, i8* %4, i32 17)
          to label %call2.i.i.noexc unwind label %lpad16

call2.i.i.noexc:                                  ; preds = %invoke.cont15
  %tobool.i = icmp eq %"class.std::basic_filebuf"* %call2.i.i50, null
  %5 = bitcast %"class.std::basic_ofstream"* %arrayidx4 to i8**
  %vtable3.i = load i8*, i8** %5, align 16, !tbaa !6
  %vbase.offset.ptr4.i = getelementptr i8, i8* %vtable3.i, i64 -24
  %6 = bitcast i8* %vbase.offset.ptr4.i to i64*
  %vbase.offset5.i = load i64, i64* %6, align 8
  %7 = bitcast %"class.std::basic_ofstream"* %arrayidx4 to i8*
  %add.ptr6.i = getelementptr inbounds i8, i8* %7, i64 %vbase.offset5.i
  %8 = bitcast i8* %add.ptr6.i to %"class.std::basic_ios"*
  br i1 %tobool.i, label %if.then.i, label %if.else.i

if.then.i:                                        ; preds = %call2.i.i.noexc
  %_M_streambuf_state.i.i.i = getelementptr inbounds i8, i8* %add.ptr6.i, i64 32
  %9 = bitcast i8* %_M_streambuf_state.i.i.i to i32*
  %10 = load i32, i32* %9, align 8, !tbaa !8
  %or.i.i.i = or i32 %10, 4
  invoke void @_ZNSt9basic_iosIcSt11char_traitsIcEE5clearESt12_Ios_Iostate(%"class.std::basic_ios"* nonnull %8, i32 %or.i.i.i)
          to label %invoke.cont19 unwind label %lpad16

if.else.i:                                        ; preds = %call2.i.i.noexc
  invoke void @_ZNSt9basic_iosIcSt11char_traitsIcEE5clearESt12_Ios_Iostate(%"class.std::basic_ios"* nonnull %8, i32 0)
          to label %invoke.cont19 unwind label %lpad16

invoke.cont19:                                    ; preds = %if.else.i, %if.then.i
  %11 = load i8*, i8** %_M_p.i.i.i.i, align 8, !tbaa !17
  %arrayidx.i.i = getelementptr inbounds i8, i8* %11, i64 -24
  %12 = bitcast i8* %arrayidx.i.i to %"struct.std::basic_string<char, std::char_traits<char>, std::allocator<char> >::_Rep"*
  %13 = getelementptr inbounds %"class.std::ios_base::Init", %"class.std::ios_base::Init"* %ref.tmp.i, i64 0, i32 0
  call void @llvm.lifetime.start.p0i8(i64 1, i8* nonnull %13) #3
  %cmp.i.i = icmp eq i8* %arrayidx.i.i, bitcast ([0 x i64]* @_ZNSs4_Rep20_S_empty_rep_storageE to i8*)
  br i1 %cmp.i.i, label %_ZNSsD2Ev.exit, label %if.then.i.i, !prof !22

if.then.i.i:                                      ; preds = %invoke.cont19
  %_M_refcount.i.i = getelementptr inbounds i8, i8* %11, i64 -8
  %14 = bitcast i8* %_M_refcount.i.i to i32*
  br i1 icmp ne (i8* bitcast (i32 (i32*, void (i8*)*)* @__pthread_key_create to i8*), i8* null), label %if.then.i.i.i, label %if.else.i.i.i

if.then.i.i.i:                                    ; preds = %if.then.i.i
  %15 = atomicrmw volatile add i32* %14, i32 -1 acq_rel
  br label %invoke.cont.i.i

if.else.i.i.i:                                    ; preds = %if.then.i.i
  %16 = load i32, i32* %14, align 4, !tbaa !23
  %add.i.i.i.i = add nsw i32 %16, -1
  store i32 %add.i.i.i.i, i32* %14, align 4, !tbaa !23
  br label %invoke.cont.i.i

invoke.cont.i.i:                                  ; preds = %if.else.i.i.i, %if.then.i.i.i
  %retval.0.i.i.i = phi i32 [ %15, %if.then.i.i.i ], [ %16, %if.else.i.i.i ]
  %cmp3.i.i = icmp slt i32 %retval.0.i.i.i, 1
  br i1 %cmp3.i.i, label %if.then4.i.i, label %_ZNSsD2Ev.exit

if.then4.i.i:                                     ; preds = %invoke.cont.i.i
  call void @_ZNSs4_Rep10_M_destroyERKSaIcE(%"struct.std::basic_string<char, std::char_traits<char>, std::allocator<char> >::_Rep"* nonnull %12, %"class.std::ios_base::Init"* nonnull dereferenceable(1) %ref.tmp.i) #3
  br label %_ZNSsD2Ev.exit

_ZNSsD2Ev.exit:                                   ; preds = %if.then4.i.i, %invoke.cont.i.i, %invoke.cont19
  call void @llvm.lifetime.end.p0i8(i64 1, i8* nonnull %13) #3
  %_M_p.i.i.i53 = getelementptr inbounds %"class.std::basic_string", %"class.std::basic_string"* %agg.tmp10, i64 0, i32 0, i32 0
  %17 = load i8*, i8** %_M_p.i.i.i53, align 8, !tbaa !17
  %arrayidx.i.i54 = getelementptr inbounds i8, i8* %17, i64 -24
  %18 = bitcast i8* %arrayidx.i.i54 to %"struct.std::basic_string<char, std::char_traits<char>, std::allocator<char> >::_Rep"*
  %19 = getelementptr inbounds %"class.std::ios_base::Init", %"class.std::ios_base::Init"* %ref.tmp.i52, i64 0, i32 0
  call void @llvm.lifetime.start.p0i8(i64 1, i8* nonnull %19) #3
  %cmp.i.i55 = icmp eq i8* %arrayidx.i.i54, bitcast ([0 x i64]* @_ZNSs4_Rep20_S_empty_rep_storageE to i8*)
  br i1 %cmp.i.i55, label %_ZNSsD2Ev.exit65, label %if.then.i.i57, !prof !22

if.then.i.i57:                                    ; preds = %_ZNSsD2Ev.exit
  %_M_refcount.i.i56 = getelementptr inbounds i8, i8* %17, i64 -8
  %20 = bitcast i8* %_M_refcount.i.i56 to i32*
  br i1 icmp ne (i8* bitcast (i32 (i32*, void (i8*)*)* @__pthread_key_create to i8*), i8* null), label %if.then.i.i.i58, label %if.else.i.i.i60

if.then.i.i.i58:                                  ; preds = %if.then.i.i57
  %21 = atomicrmw volatile add i32* %20, i32 -1 acq_rel
  br label %invoke.cont.i.i63

if.else.i.i.i60:                                  ; preds = %if.then.i.i57
  %22 = load i32, i32* %20, align 4, !tbaa !23
  %add.i.i.i.i59 = add nsw i32 %22, -1
  store i32 %add.i.i.i.i59, i32* %20, align 4, !tbaa !23
  br label %invoke.cont.i.i63

invoke.cont.i.i63:                                ; preds = %if.else.i.i.i60, %if.then.i.i.i58
  %retval.0.i.i.i61 = phi i32 [ %21, %if.then.i.i.i58 ], [ %22, %if.else.i.i.i60 ]
  %cmp3.i.i62 = icmp slt i32 %retval.0.i.i.i61, 1
  br i1 %cmp3.i.i62, label %if.then4.i.i64, label %_ZNSsD2Ev.exit65

if.then4.i.i64:                                   ; preds = %invoke.cont.i.i63
  call void @_ZNSs4_Rep10_M_destroyERKSaIcE(%"struct.std::basic_string<char, std::char_traits<char>, std::allocator<char> >::_Rep"* nonnull %18, %"class.std::ios_base::Init"* nonnull dereferenceable(1) %ref.tmp.i52) #3
  br label %_ZNSsD2Ev.exit65

_ZNSsD2Ev.exit65:                                 ; preds = %if.then4.i.i64, %invoke.cont.i.i63, %_ZNSsD2Ev.exit
  call void @llvm.lifetime.end.p0i8(i64 1, i8* nonnull %19) #3
  call void @llvm.lifetime.end.p0i8(i64 1, i8* nonnull %3) #3
  %_M_p.i.i.i67 = getelementptr inbounds %"class.std::basic_string", %"class.std::basic_string"* %agg.tmp6, i64 0, i32 0, i32 0
  %23 = load i8*, i8** %_M_p.i.i.i67, align 8, !tbaa !17
  %arrayidx.i.i68 = getelementptr inbounds i8, i8* %23, i64 -24
  %24 = bitcast i8* %arrayidx.i.i68 to %"struct.std::basic_string<char, std::char_traits<char>, std::allocator<char> >::_Rep"*
  %25 = getelementptr inbounds %"class.std::ios_base::Init", %"class.std::ios_base::Init"* %ref.tmp.i66, i64 0, i32 0
  call void @llvm.lifetime.start.p0i8(i64 1, i8* nonnull %25) #3
  %cmp.i.i69 = icmp eq i8* %arrayidx.i.i68, bitcast ([0 x i64]* @_ZNSs4_Rep20_S_empty_rep_storageE to i8*)
  br i1 %cmp.i.i69, label %_ZNSsD2Ev.exit79, label %if.then.i.i71, !prof !22

if.then.i.i71:                                    ; preds = %_ZNSsD2Ev.exit65
  %_M_refcount.i.i70 = getelementptr inbounds i8, i8* %23, i64 -8
  %26 = bitcast i8* %_M_refcount.i.i70 to i32*
  br i1 icmp ne (i8* bitcast (i32 (i32*, void (i8*)*)* @__pthread_key_create to i8*), i8* null), label %if.then.i.i.i72, label %if.else.i.i.i74

if.then.i.i.i72:                                  ; preds = %if.then.i.i71
  %27 = atomicrmw volatile add i32* %26, i32 -1 acq_rel
  br label %invoke.cont.i.i77

if.else.i.i.i74:                                  ; preds = %if.then.i.i71
  %28 = load i32, i32* %26, align 4, !tbaa !23
  %add.i.i.i.i73 = add nsw i32 %28, -1
  store i32 %add.i.i.i.i73, i32* %26, align 4, !tbaa !23
  br label %invoke.cont.i.i77

invoke.cont.i.i77:                                ; preds = %if.else.i.i.i74, %if.then.i.i.i72
  %retval.0.i.i.i75 = phi i32 [ %27, %if.then.i.i.i72 ], [ %28, %if.else.i.i.i74 ]
  %cmp3.i.i76 = icmp slt i32 %retval.0.i.i.i75, 1
  br i1 %cmp3.i.i76, label %if.then4.i.i78, label %_ZNSsD2Ev.exit79

if.then4.i.i78:                                   ; preds = %invoke.cont.i.i77
  call void @_ZNSs4_Rep10_M_destroyERKSaIcE(%"struct.std::basic_string<char, std::char_traits<char>, std::allocator<char> >::_Rep"* nonnull %24, %"class.std::ios_base::Init"* nonnull dereferenceable(1) %ref.tmp.i66) #3
  br label %_ZNSsD2Ev.exit79

_ZNSsD2Ev.exit79:                                 ; preds = %if.then4.i.i78, %invoke.cont.i.i77, %_ZNSsD2Ev.exit65
  call void @llvm.lifetime.end.p0i8(i64 1, i8* nonnull %25) #3
  call void @llvm.lifetime.end.p0i8(i64 1, i8* nonnull %2) #3
  %_M_p.i.i.i81 = getelementptr inbounds %"class.std::basic_string", %"class.std::basic_string"* %agg.tmp, i64 0, i32 0, i32 0
  %29 = load i8*, i8** %_M_p.i.i.i81, align 8, !tbaa !17
  %arrayidx.i.i82 = getelementptr inbounds i8, i8* %29, i64 -24
  %30 = bitcast i8* %arrayidx.i.i82 to %"struct.std::basic_string<char, std::char_traits<char>, std::allocator<char> >::_Rep"*
  %31 = getelementptr inbounds %"class.std::ios_base::Init", %"class.std::ios_base::Init"* %ref.tmp.i80, i64 0, i32 0
  call void @llvm.lifetime.start.p0i8(i64 1, i8* nonnull %31) #3
  %cmp.i.i83 = icmp eq i8* %arrayidx.i.i82, bitcast ([0 x i64]* @_ZNSs4_Rep20_S_empty_rep_storageE to i8*)
  br i1 %cmp.i.i83, label %_ZNSsD2Ev.exit93, label %if.then.i.i85, !prof !22

if.then.i.i85:                                    ; preds = %_ZNSsD2Ev.exit79
  %_M_refcount.i.i84 = getelementptr inbounds i8, i8* %29, i64 -8
  %32 = bitcast i8* %_M_refcount.i.i84 to i32*
  br i1 icmp ne (i8* bitcast (i32 (i32*, void (i8*)*)* @__pthread_key_create to i8*), i8* null), label %if.then.i.i.i86, label %if.else.i.i.i88

if.then.i.i.i86:                                  ; preds = %if.then.i.i85
  %33 = atomicrmw volatile add i32* %32, i32 -1 acq_rel
  br label %invoke.cont.i.i91

if.else.i.i.i88:                                  ; preds = %if.then.i.i85
  %34 = load i32, i32* %32, align 4, !tbaa !23
  %add.i.i.i.i87 = add nsw i32 %34, -1
  store i32 %add.i.i.i.i87, i32* %32, align 4, !tbaa !23
  br label %invoke.cont.i.i91

invoke.cont.i.i91:                                ; preds = %if.else.i.i.i88, %if.then.i.i.i86
  %retval.0.i.i.i89 = phi i32 [ %33, %if.then.i.i.i86 ], [ %34, %if.else.i.i.i88 ]
  %cmp3.i.i90 = icmp slt i32 %retval.0.i.i.i89, 1
  br i1 %cmp3.i.i90, label %if.then4.i.i92, label %_ZNSsD2Ev.exit93

if.then4.i.i92:                                   ; preds = %invoke.cont.i.i91
  call void @_ZNSs4_Rep10_M_destroyERKSaIcE(%"struct.std::basic_string<char, std::char_traits<char>, std::allocator<char> >::_Rep"* nonnull %30, %"class.std::ios_base::Init"* nonnull dereferenceable(1) %ref.tmp.i80) #3
  br label %_ZNSsD2Ev.exit93

_ZNSsD2Ev.exit93:                                 ; preds = %if.then4.i.i92, %invoke.cont.i.i91, %_ZNSsD2Ev.exit79
  call void @llvm.lifetime.end.p0i8(i64 1, i8* nonnull %31) #3
  call void @llvm.lifetime.end.p0i8(i64 1, i8* nonnull %1) #3
  call void @llvm.lifetime.end.p0i8(i64 8, i8* nonnull %0) #3
  br label %if.end

lpad:                                             ; preds = %if.then
  %35 = landingpad { i8*, i32 }
          cleanup
  %36 = extractvalue { i8*, i32 } %35, 0
  %37 = extractvalue { i8*, i32 } %35, 1
  br label %ehcleanup26

lpad8:                                            ; preds = %invoke.cont
  %38 = landingpad { i8*, i32 }
          cleanup
  %39 = extractvalue { i8*, i32 } %38, 0
  %40 = extractvalue { i8*, i32 } %38, 1
  br label %ehcleanup23

lpad12:                                           ; preds = %invoke.cont9
  %41 = landingpad { i8*, i32 }
          cleanup
  %42 = extractvalue { i8*, i32 } %41, 0
  %43 = extractvalue { i8*, i32 } %41, 1
  br label %ehcleanup20

lpad14:                                           ; preds = %invoke.cont13
  %44 = landingpad { i8*, i32 }
          cleanup
  %45 = extractvalue { i8*, i32 } %44, 0
  %46 = extractvalue { i8*, i32 } %44, 1
  br label %ehcleanup

lpad16:                                           ; preds = %if.else.i, %if.then.i, %invoke.cont15
  %47 = landingpad { i8*, i32 }
          cleanup
  %48 = extractvalue { i8*, i32 } %47, 0
  %49 = extractvalue { i8*, i32 } %47, 1
  %50 = load i8*, i8** %_M_p.i.i.i.i, align 8, !tbaa !17
  %arrayidx.i.i99 = getelementptr inbounds i8, i8* %50, i64 -24
  %51 = bitcast i8* %arrayidx.i.i99 to %"struct.std::basic_string<char, std::char_traits<char>, std::allocator<char> >::_Rep"*
  %52 = getelementptr inbounds %"class.std::ios_base::Init", %"class.std::ios_base::Init"* %ref.tmp.i97, i64 0, i32 0
  call void @llvm.lifetime.start.p0i8(i64 1, i8* nonnull %52) #3
  %cmp.i.i100 = icmp eq i8* %arrayidx.i.i99, bitcast ([0 x i64]* @_ZNSs4_Rep20_S_empty_rep_storageE to i8*)
  br i1 %cmp.i.i100, label %_ZNSsD2Ev.exit110, label %if.then.i.i102, !prof !22

if.then.i.i102:                                   ; preds = %lpad16
  %_M_refcount.i.i101 = getelementptr inbounds i8, i8* %50, i64 -8
  %53 = bitcast i8* %_M_refcount.i.i101 to i32*
  br i1 icmp ne (i8* bitcast (i32 (i32*, void (i8*)*)* @__pthread_key_create to i8*), i8* null), label %if.then.i.i.i103, label %if.else.i.i.i105

if.then.i.i.i103:                                 ; preds = %if.then.i.i102
  %54 = atomicrmw volatile add i32* %53, i32 -1 acq_rel
  br label %invoke.cont.i.i108

if.else.i.i.i105:                                 ; preds = %if.then.i.i102
  %55 = load i32, i32* %53, align 4, !tbaa !23
  %add.i.i.i.i104 = add nsw i32 %55, -1
  store i32 %add.i.i.i.i104, i32* %53, align 4, !tbaa !23
  br label %invoke.cont.i.i108

invoke.cont.i.i108:                               ; preds = %if.else.i.i.i105, %if.then.i.i.i103
  %retval.0.i.i.i106 = phi i32 [ %54, %if.then.i.i.i103 ], [ %55, %if.else.i.i.i105 ]
  %cmp3.i.i107 = icmp slt i32 %retval.0.i.i.i106, 1
  br i1 %cmp3.i.i107, label %if.then4.i.i109, label %_ZNSsD2Ev.exit110

if.then4.i.i109:                                  ; preds = %invoke.cont.i.i108
  call void @_ZNSs4_Rep10_M_destroyERKSaIcE(%"struct.std::basic_string<char, std::char_traits<char>, std::allocator<char> >::_Rep"* nonnull %51, %"class.std::ios_base::Init"* nonnull dereferenceable(1) %ref.tmp.i97) #3
  br label %_ZNSsD2Ev.exit110

_ZNSsD2Ev.exit110:                                ; preds = %if.then4.i.i109, %invoke.cont.i.i108, %lpad16
  call void @llvm.lifetime.end.p0i8(i64 1, i8* nonnull %52) #3
  br label %ehcleanup

ehcleanup:                                        ; preds = %_ZNSsD2Ev.exit110, %lpad14
  %exn.slot.0 = phi i8* [ %48, %_ZNSsD2Ev.exit110 ], [ %45, %lpad14 ]
  %ehselector.slot.0 = phi i32 [ %49, %_ZNSsD2Ev.exit110 ], [ %46, %lpad14 ]
  %_M_p.i.i.i112 = getelementptr inbounds %"class.std::basic_string", %"class.std::basic_string"* %agg.tmp10, i64 0, i32 0, i32 0
  %56 = load i8*, i8** %_M_p.i.i.i112, align 8, !tbaa !17
  %arrayidx.i.i113 = getelementptr inbounds i8, i8* %56, i64 -24
  %57 = bitcast i8* %arrayidx.i.i113 to %"struct.std::basic_string<char, std::char_traits<char>, std::allocator<char> >::_Rep"*
  %58 = getelementptr inbounds %"class.std::ios_base::Init", %"class.std::ios_base::Init"* %ref.tmp.i111, i64 0, i32 0
  call void @llvm.lifetime.start.p0i8(i64 1, i8* nonnull %58) #3
  %cmp.i.i114 = icmp eq i8* %arrayidx.i.i113, bitcast ([0 x i64]* @_ZNSs4_Rep20_S_empty_rep_storageE to i8*)
  br i1 %cmp.i.i114, label %_ZNSsD2Ev.exit124, label %if.then.i.i116, !prof !22

if.then.i.i116:                                   ; preds = %ehcleanup
  %_M_refcount.i.i115 = getelementptr inbounds i8, i8* %56, i64 -8
  %59 = bitcast i8* %_M_refcount.i.i115 to i32*
  br i1 icmp ne (i8* bitcast (i32 (i32*, void (i8*)*)* @__pthread_key_create to i8*), i8* null), label %if.then.i.i.i117, label %if.else.i.i.i119

if.then.i.i.i117:                                 ; preds = %if.then.i.i116
  %60 = atomicrmw volatile add i32* %59, i32 -1 acq_rel
  br label %invoke.cont.i.i122

if.else.i.i.i119:                                 ; preds = %if.then.i.i116
  %61 = load i32, i32* %59, align 4, !tbaa !23
  %add.i.i.i.i118 = add nsw i32 %61, -1
  store i32 %add.i.i.i.i118, i32* %59, align 4, !tbaa !23
  br label %invoke.cont.i.i122

invoke.cont.i.i122:                               ; preds = %if.else.i.i.i119, %if.then.i.i.i117
  %retval.0.i.i.i120 = phi i32 [ %60, %if.then.i.i.i117 ], [ %61, %if.else.i.i.i119 ]
  %cmp3.i.i121 = icmp slt i32 %retval.0.i.i.i120, 1
  br i1 %cmp3.i.i121, label %if.then4.i.i123, label %_ZNSsD2Ev.exit124

if.then4.i.i123:                                  ; preds = %invoke.cont.i.i122
  call void @_ZNSs4_Rep10_M_destroyERKSaIcE(%"struct.std::basic_string<char, std::char_traits<char>, std::allocator<char> >::_Rep"* nonnull %57, %"class.std::ios_base::Init"* nonnull dereferenceable(1) %ref.tmp.i111) #3
  br label %_ZNSsD2Ev.exit124

_ZNSsD2Ev.exit124:                                ; preds = %if.then4.i.i123, %invoke.cont.i.i122, %ehcleanup
  call void @llvm.lifetime.end.p0i8(i64 1, i8* nonnull %58) #3
  br label %ehcleanup20

ehcleanup20:                                      ; preds = %_ZNSsD2Ev.exit124, %lpad12
  %exn.slot.1 = phi i8* [ %exn.slot.0, %_ZNSsD2Ev.exit124 ], [ %42, %lpad12 ]
  %ehselector.slot.1 = phi i32 [ %ehselector.slot.0, %_ZNSsD2Ev.exit124 ], [ %43, %lpad12 ]
  call void @llvm.lifetime.end.p0i8(i64 1, i8* nonnull %3) #3
  %_M_p.i.i.i126 = getelementptr inbounds %"class.std::basic_string", %"class.std::basic_string"* %agg.tmp6, i64 0, i32 0, i32 0
  %62 = load i8*, i8** %_M_p.i.i.i126, align 8, !tbaa !17
  %arrayidx.i.i127 = getelementptr inbounds i8, i8* %62, i64 -24
  %63 = bitcast i8* %arrayidx.i.i127 to %"struct.std::basic_string<char, std::char_traits<char>, std::allocator<char> >::_Rep"*
  %64 = getelementptr inbounds %"class.std::ios_base::Init", %"class.std::ios_base::Init"* %ref.tmp.i125, i64 0, i32 0
  call void @llvm.lifetime.start.p0i8(i64 1, i8* nonnull %64) #3
  %cmp.i.i128 = icmp eq i8* %arrayidx.i.i127, bitcast ([0 x i64]* @_ZNSs4_Rep20_S_empty_rep_storageE to i8*)
  br i1 %cmp.i.i128, label %_ZNSsD2Ev.exit138, label %if.then.i.i130, !prof !22

if.then.i.i130:                                   ; preds = %ehcleanup20
  %_M_refcount.i.i129 = getelementptr inbounds i8, i8* %62, i64 -8
  %65 = bitcast i8* %_M_refcount.i.i129 to i32*
  br i1 icmp ne (i8* bitcast (i32 (i32*, void (i8*)*)* @__pthread_key_create to i8*), i8* null), label %if.then.i.i.i131, label %if.else.i.i.i133

if.then.i.i.i131:                                 ; preds = %if.then.i.i130
  %66 = atomicrmw volatile add i32* %65, i32 -1 acq_rel
  br label %invoke.cont.i.i136

if.else.i.i.i133:                                 ; preds = %if.then.i.i130
  %67 = load i32, i32* %65, align 4, !tbaa !23
  %add.i.i.i.i132 = add nsw i32 %67, -1
  store i32 %add.i.i.i.i132, i32* %65, align 4, !tbaa !23
  br label %invoke.cont.i.i136

invoke.cont.i.i136:                               ; preds = %if.else.i.i.i133, %if.then.i.i.i131
  %retval.0.i.i.i134 = phi i32 [ %66, %if.then.i.i.i131 ], [ %67, %if.else.i.i.i133 ]
  %cmp3.i.i135 = icmp slt i32 %retval.0.i.i.i134, 1
  br i1 %cmp3.i.i135, label %if.then4.i.i137, label %_ZNSsD2Ev.exit138

if.then4.i.i137:                                  ; preds = %invoke.cont.i.i136
  call void @_ZNSs4_Rep10_M_destroyERKSaIcE(%"struct.std::basic_string<char, std::char_traits<char>, std::allocator<char> >::_Rep"* nonnull %63, %"class.std::ios_base::Init"* nonnull dereferenceable(1) %ref.tmp.i125) #3
  br label %_ZNSsD2Ev.exit138

_ZNSsD2Ev.exit138:                                ; preds = %if.then4.i.i137, %invoke.cont.i.i136, %ehcleanup20
  call void @llvm.lifetime.end.p0i8(i64 1, i8* nonnull %64) #3
  br label %ehcleanup23

ehcleanup23:                                      ; preds = %_ZNSsD2Ev.exit138, %lpad8
  %exn.slot.2 = phi i8* [ %exn.slot.1, %_ZNSsD2Ev.exit138 ], [ %39, %lpad8 ]
  %ehselector.slot.2 = phi i32 [ %ehselector.slot.1, %_ZNSsD2Ev.exit138 ], [ %40, %lpad8 ]
  call void @llvm.lifetime.end.p0i8(i64 1, i8* nonnull %2) #3
  %_M_p.i.i.i143 = getelementptr inbounds %"class.std::basic_string", %"class.std::basic_string"* %agg.tmp, i64 0, i32 0, i32 0
  %68 = load i8*, i8** %_M_p.i.i.i143, align 8, !tbaa !17
  %arrayidx.i.i144 = getelementptr inbounds i8, i8* %68, i64 -24
  %69 = bitcast i8* %arrayidx.i.i144 to %"struct.std::basic_string<char, std::char_traits<char>, std::allocator<char> >::_Rep"*
  %70 = getelementptr inbounds %"class.std::ios_base::Init", %"class.std::ios_base::Init"* %ref.tmp.i142, i64 0, i32 0
  call void @llvm.lifetime.start.p0i8(i64 1, i8* nonnull %70) #3
  %cmp.i.i145 = icmp eq i8* %arrayidx.i.i144, bitcast ([0 x i64]* @_ZNSs4_Rep20_S_empty_rep_storageE to i8*)
  br i1 %cmp.i.i145, label %_ZNSsD2Ev.exit155, label %if.then.i.i147, !prof !22

if.then.i.i147:                                   ; preds = %ehcleanup23
  %_M_refcount.i.i146 = getelementptr inbounds i8, i8* %68, i64 -8
  %71 = bitcast i8* %_M_refcount.i.i146 to i32*
  br i1 icmp ne (i8* bitcast (i32 (i32*, void (i8*)*)* @__pthread_key_create to i8*), i8* null), label %if.then.i.i.i148, label %if.else.i.i.i150

if.then.i.i.i148:                                 ; preds = %if.then.i.i147
  %72 = atomicrmw volatile add i32* %71, i32 -1 acq_rel
  br label %invoke.cont.i.i153

if.else.i.i.i150:                                 ; preds = %if.then.i.i147
  %73 = load i32, i32* %71, align 4, !tbaa !23
  %add.i.i.i.i149 = add nsw i32 %73, -1
  store i32 %add.i.i.i.i149, i32* %71, align 4, !tbaa !23
  br label %invoke.cont.i.i153

invoke.cont.i.i153:                               ; preds = %if.else.i.i.i150, %if.then.i.i.i148
  %retval.0.i.i.i151 = phi i32 [ %72, %if.then.i.i.i148 ], [ %73, %if.else.i.i.i150 ]
  %cmp3.i.i152 = icmp slt i32 %retval.0.i.i.i151, 1
  br i1 %cmp3.i.i152, label %if.then4.i.i154, label %_ZNSsD2Ev.exit155

if.then4.i.i154:                                  ; preds = %invoke.cont.i.i153
  call void @_ZNSs4_Rep10_M_destroyERKSaIcE(%"struct.std::basic_string<char, std::char_traits<char>, std::allocator<char> >::_Rep"* nonnull %69, %"class.std::ios_base::Init"* nonnull dereferenceable(1) %ref.tmp.i142) #3
  br label %_ZNSsD2Ev.exit155

_ZNSsD2Ev.exit155:                                ; preds = %if.then4.i.i154, %invoke.cont.i.i153, %ehcleanup23
  call void @llvm.lifetime.end.p0i8(i64 1, i8* nonnull %70) #3
  br label %ehcleanup26

ehcleanup26:                                      ; preds = %_ZNSsD2Ev.exit155, %lpad
  %exn.slot.3 = phi i8* [ %exn.slot.2, %_ZNSsD2Ev.exit155 ], [ %36, %lpad ]
  %ehselector.slot.3 = phi i32 [ %ehselector.slot.2, %_ZNSsD2Ev.exit155 ], [ %37, %lpad ]
  call void @llvm.lifetime.end.p0i8(i64 1, i8* nonnull %1) #3
  call void @llvm.lifetime.end.p0i8(i64 8, i8* nonnull %0) #3
  %lpad.val = insertvalue { i8*, i32 } undef, i8* %exn.slot.3, 0
  %lpad.val46 = insertvalue { i8*, i32 } %lpad.val, i32 %ehselector.slot.3, 1
  resume { i8*, i32 } %lpad.val46

if.end:                                           ; preds = %_ZNSsD2Ev.exit93, %entry
  %call29 = call i32 @omp_get_thread_num() #3
  %idxprom30 = sext i32 %call29 to i64
  %arrayidx31 = getelementptr inbounds [1024 x %"class.std::basic_ofstream"], [1024 x %"class.std::basic_ofstream"]* @f3, i64 0, i64 %idxprom30
  %74 = bitcast %"class.std::basic_ofstream"* %arrayidx31 to %"class.std::basic_ostream"*
  %tobool.i156 = icmp eq i8* %acc_kernel_name, null
  br i1 %tobool.i156, label %if.then.i159, label %if.else.i162

if.then.i159:                                     ; preds = %if.end
  %75 = bitcast %"class.std::basic_ofstream"* %arrayidx31 to i8**
  %vtable.i = load i8*, i8** %75, align 16, !tbaa !6
  %vbase.offset.ptr.i = getelementptr i8, i8* %vtable.i, i64 -24
  %76 = bitcast i8* %vbase.offset.ptr.i to i64*
  %vbase.offset.i = load i64, i64* %76, align 8
  %77 = bitcast %"class.std::basic_ofstream"* %arrayidx31 to i8*
  %add.ptr.i = getelementptr inbounds i8, i8* %77, i64 %vbase.offset.i
  %78 = bitcast i8* %add.ptr.i to %"class.std::basic_ios"*
  %_M_streambuf_state.i.i.i157 = getelementptr inbounds i8, i8* %add.ptr.i, i64 32
  %79 = bitcast i8* %_M_streambuf_state.i.i.i157 to i32*
  %80 = load i32, i32* %79, align 8, !tbaa !8
  %or.i.i.i158 = or i32 %80, 1
  call void @_ZNSt9basic_iosIcSt11char_traitsIcEE5clearESt12_Ios_Iostate(%"class.std::basic_ios"* nonnull %78, i32 %or.i.i.i158)
  br label %_ZStlsISt11char_traitsIcEERSt13basic_ostreamIcT_ES5_PKc.exit

if.else.i162:                                     ; preds = %if.end
  %call.i.i160 = call i64 @strlen(i8* nonnull %acc_kernel_name) #3
  %call1.i161 = call dereferenceable(272) %"class.std::basic_ostream"* @_ZSt16__ostream_insertIcSt11char_traitsIcEERSt13basic_ostreamIT_T0_ES6_PKS3_l(%"class.std::basic_ostream"* nonnull dereferenceable(272) %74, i8* nonnull %acc_kernel_name, i64 %call.i.i160)
  br label %_ZStlsISt11char_traitsIcEERSt13basic_ostreamIcT_ES5_PKc.exit

_ZStlsISt11char_traitsIcEERSt13basic_ostreamIcT_ES5_PKc.exit: ; preds = %if.else.i162, %if.then.i159
  %call1.i164 = call dereferenceable(272) %"class.std::basic_ostream"* @_ZSt16__ostream_insertIcSt11char_traitsIcEERSt13basic_ostreamIT_T0_ES6_PKS3_l(%"class.std::basic_ostream"* nonnull dereferenceable(272) %74, i8* nonnull getelementptr inbounds ([2 x i8], [2 x i8]* @.str.9, i64 0, i64 0), i64 1)
  %tobool.i166 = icmp eq i8* %node_id, null
  br i1 %tobool.i166, label %if.then.i173, label %if.else.i176

if.then.i173:                                     ; preds = %_ZStlsISt11char_traitsIcEERSt13basic_ostreamIcT_ES5_PKc.exit
  %81 = bitcast %"class.std::basic_ofstream"* %arrayidx31 to i8**
  %vtable.i167 = load i8*, i8** %81, align 16, !tbaa !6
  %vbase.offset.ptr.i168 = getelementptr i8, i8* %vtable.i167, i64 -24
  %82 = bitcast i8* %vbase.offset.ptr.i168 to i64*
  %vbase.offset.i169 = load i64, i64* %82, align 8
  %83 = bitcast %"class.std::basic_ofstream"* %arrayidx31 to i8*
  %add.ptr.i170 = getelementptr inbounds i8, i8* %83, i64 %vbase.offset.i169
  %84 = bitcast i8* %add.ptr.i170 to %"class.std::basic_ios"*
  %_M_streambuf_state.i.i.i171 = getelementptr inbounds i8, i8* %add.ptr.i170, i64 32
  %85 = bitcast i8* %_M_streambuf_state.i.i.i171 to i32*
  %86 = load i32, i32* %85, align 8, !tbaa !8
  %or.i.i.i172 = or i32 %86, 1
  call void @_ZNSt9basic_iosIcSt11char_traitsIcEE5clearESt12_Ios_Iostate(%"class.std::basic_ios"* nonnull %84, i32 %or.i.i.i172)
  br label %_ZStlsISt11char_traitsIcEERSt13basic_ostreamIcT_ES5_PKc.exit177

if.else.i176:                                     ; preds = %_ZStlsISt11char_traitsIcEERSt13basic_ostreamIcT_ES5_PKc.exit
  %call.i.i174 = call i64 @strlen(i8* nonnull %node_id) #3
  %call1.i175 = call dereferenceable(272) %"class.std::basic_ostream"* @_ZSt16__ostream_insertIcSt11char_traitsIcEERSt13basic_ostreamIT_T0_ES6_PKS3_l(%"class.std::basic_ostream"* nonnull dereferenceable(272) %74, i8* nonnull %node_id, i64 %call.i.i174)
  br label %_ZStlsISt11char_traitsIcEERSt13basic_ostreamIcT_ES5_PKc.exit177

_ZStlsISt11char_traitsIcEERSt13basic_ostreamIcT_ES5_PKc.exit177: ; preds = %if.else.i176, %if.then.i173
  %call1.i179 = call dereferenceable(272) %"class.std::basic_ostream"* @_ZSt16__ostream_insertIcSt11char_traitsIcEERSt13basic_ostreamIT_T0_ES6_PKS3_l(%"class.std::basic_ostream"* nonnull dereferenceable(272) %74, i8* nonnull getelementptr inbounds ([2 x i8], [2 x i8]* @.str.9, i64 0, i64 0), i64 1)
  %call36 = call dereferenceable(272) %"class.std::basic_ostream"* @_ZNSolsEi(%"class.std::basic_ostream"* nonnull %74, i32 %rowsA)
  %call1.i182 = call dereferenceable(272) %"class.std::basic_ostream"* @_ZSt16__ostream_insertIcSt11char_traitsIcEERSt13basic_ostreamIT_T0_ES6_PKS3_l(%"class.std::basic_ostream"* nonnull dereferenceable(272) %call36, i8* nonnull getelementptr inbounds ([2 x i8], [2 x i8]* @.str.9, i64 0, i64 0), i64 1)
  %call38 = call dereferenceable(272) %"class.std::basic_ostream"* @_ZNSolsEi(%"class.std::basic_ostream"* nonnull %call36, i32 %colsA)
  %call1.i140 = call dereferenceable(272) %"class.std::basic_ostream"* @_ZSt16__ostream_insertIcSt11char_traitsIcEERSt13basic_ostreamIT_T0_ES6_PKS3_l(%"class.std::basic_ostream"* nonnull dereferenceable(272) %call38, i8* nonnull getelementptr inbounds ([2 x i8], [2 x i8]* @.str.9, i64 0, i64 0), i64 1)
  %call40 = call dereferenceable(272) %"class.std::basic_ostream"* @_ZNSolsEi(%"class.std::basic_ostream"* nonnull %call38, i32 %rowsB)
  %call1.i95 = call dereferenceable(272) %"class.std::basic_ostream"* @_ZSt16__ostream_insertIcSt11char_traitsIcEERSt13basic_ostreamIT_T0_ES6_PKS3_l(%"class.std::basic_ostream"* nonnull dereferenceable(272) %call40, i8* nonnull getelementptr inbounds ([2 x i8], [2 x i8]* @.str.9, i64 0, i64 0), i64 1)
  %call42 = call dereferenceable(272) %"class.std::basic_ostream"* @_ZNSolsEi(%"class.std::basic_ostream"* nonnull %call40, i32 %colsB)
  %call1.i49 = call dereferenceable(272) %"class.std::basic_ostream"* @_ZSt16__ostream_insertIcSt11char_traitsIcEERSt13basic_ostreamIT_T0_ES6_PKS3_l(%"class.std::basic_ostream"* nonnull dereferenceable(272) %call42, i8* nonnull getelementptr inbounds ([2 x i8], [2 x i8]* @.str.9, i64 0, i64 0), i64 1)
  %call44 = call dereferenceable(272) %"class.std::basic_ostream"* @_ZNSolsEi(%"class.std::basic_ostream"* nonnull %call42, i32 %batch_size)
  %call1.i = call dereferenceable(272) %"class.std::basic_ostream"* @_ZSt16__ostream_insertIcSt11char_traitsIcEERSt13basic_ostreamIT_T0_ES6_PKS3_l(%"class.std::basic_ostream"* nonnull dereferenceable(272) %call44, i8* nonnull getelementptr inbounds ([2 x i8], [2 x i8]* @.str.1, i64 0, i64 0), i64 1)
  ret void
}

; Function Attrs: noinline uwtable
define dso_local void @print_sdp(i8* %acc_kernel_name, i8* %kernel_type, i8* %run_dir, i8* %node_id, i32 %working_mode, i32 %size) #6 personality i8* bitcast (i32 (...)* @__gxx_personality_v0 to i8*) {
entry:
  %ref.tmp.i140 = alloca %"class.std::ios_base::Init", align 1
  %ref.tmp.i119 = alloca %"class.std::ios_base::Init", align 1
  %ref.tmp.i105 = alloca %"class.std::ios_base::Init", align 1
  %ref.tmp.i91 = alloca %"class.std::ios_base::Init", align 1
  %ref.tmp.i74 = alloca %"class.std::ios_base::Init", align 1
  %ref.tmp.i60 = alloca %"class.std::ios_base::Init", align 1
  %ref.tmp.i46 = alloca %"class.std::ios_base::Init", align 1
  %ref.tmp.i = alloca %"class.std::ios_base::Init", align 1
  %ref.tmp = alloca %"class.std::basic_string", align 8
  %agg.tmp = alloca %"class.std::basic_string", align 8
  %ref.tmp5 = alloca %"class.std::ios_base::Init", align 1
  %agg.tmp6 = alloca %"class.std::basic_string", align 8
  %ref.tmp7 = alloca %"class.std::ios_base::Init", align 1
  %agg.tmp10 = alloca %"class.std::basic_string", align 8
  %ref.tmp11 = alloca %"class.std::ios_base::Init", align 1
  %call = tail call i32 @omp_get_thread_num() #3
  %idxprom = sext i32 %call to i64
  %_M_file.i.i = getelementptr inbounds [1024 x %"class.std::basic_ofstream"], [1024 x %"class.std::basic_ofstream"]* @f3, i64 0, i64 %idxprom, i32 1, i32 2
  %call.i.i = tail call zeroext i1 @_ZNKSt12__basic_fileIcE7is_openEv(%"class.std::__basic_file"* nonnull %_M_file.i.i) #21
  br i1 %call.i.i, label %if.end, label %if.then

if.then:                                          ; preds = %entry
  %call2 = tail call i32 @omp_get_thread_num() #3
  %idxprom3 = sext i32 %call2 to i64
  %arrayidx4 = getelementptr inbounds [1024 x %"class.std::basic_ofstream"], [1024 x %"class.std::basic_ofstream"]* @f3, i64 0, i64 %idxprom3
  %0 = bitcast %"class.std::basic_string"* %ref.tmp to i8*
  call void @llvm.lifetime.start.p0i8(i64 8, i8* nonnull %0) #3
  %1 = getelementptr inbounds %"class.std::ios_base::Init", %"class.std::ios_base::Init"* %ref.tmp5, i64 0, i32 0
  call void @llvm.lifetime.start.p0i8(i64 1, i8* nonnull %1) #3
  invoke void @_ZNSsC1EPKcRKSaIcE(%"class.std::basic_string"* nonnull %agg.tmp, i8* %run_dir, %"class.std::ios_base::Init"* nonnull dereferenceable(1) %ref.tmp5)
          to label %invoke.cont unwind label %lpad

invoke.cont:                                      ; preds = %if.then
  %2 = getelementptr inbounds %"class.std::ios_base::Init", %"class.std::ios_base::Init"* %ref.tmp7, i64 0, i32 0
  call void @llvm.lifetime.start.p0i8(i64 1, i8* nonnull %2) #3
  invoke void @_ZNSsC1EPKcRKSaIcE(%"class.std::basic_string"* nonnull %agg.tmp6, i8* %kernel_type, %"class.std::ios_base::Init"* nonnull dereferenceable(1) %ref.tmp7)
          to label %invoke.cont9 unwind label %lpad8

invoke.cont9:                                     ; preds = %invoke.cont
  %3 = getelementptr inbounds %"class.std::ios_base::Init", %"class.std::ios_base::Init"* %ref.tmp11, i64 0, i32 0
  call void @llvm.lifetime.start.p0i8(i64 1, i8* nonnull %3) #3
  invoke void @_ZNSsC1EPKcRKSaIcE(%"class.std::basic_string"* nonnull %agg.tmp10, i8* getelementptr inbounds ([8 x i8], [8 x i8]* @.str.16, i64 0, i64 0), %"class.std::ios_base::Init"* nonnull dereferenceable(1) %ref.tmp11)
          to label %invoke.cont13 unwind label %lpad12

invoke.cont13:                                    ; preds = %invoke.cont9
  invoke void @_Z12get_dir_nameSsSsSs(%"class.std::basic_string"* nonnull sret %ref.tmp, %"class.std::basic_string"* nonnull %agg.tmp, %"class.std::basic_string"* nonnull %agg.tmp6, %"class.std::basic_string"* nonnull %agg.tmp10)
          to label %invoke.cont15 unwind label %lpad14

invoke.cont15:                                    ; preds = %invoke.cont13
  %_M_filebuf.i = getelementptr inbounds [1024 x %"class.std::basic_ofstream"], [1024 x %"class.std::basic_ofstream"]* @f3, i64 0, i64 %idxprom3, i32 1
  %_M_p.i.i.i.i = getelementptr inbounds %"class.std::basic_string", %"class.std::basic_string"* %ref.tmp, i64 0, i32 0, i32 0
  %4 = load i8*, i8** %_M_p.i.i.i.i, align 8, !tbaa !17
  %call2.i.i44 = invoke %"class.std::basic_filebuf"* @_ZNSt13basic_filebufIcSt11char_traitsIcEE4openEPKcSt13_Ios_Openmode(%"class.std::basic_filebuf"* nonnull %_M_filebuf.i, i8* %4, i32 17)
          to label %call2.i.i.noexc unwind label %lpad16

call2.i.i.noexc:                                  ; preds = %invoke.cont15
  %tobool.i = icmp eq %"class.std::basic_filebuf"* %call2.i.i44, null
  %5 = bitcast %"class.std::basic_ofstream"* %arrayidx4 to i8**
  %vtable3.i = load i8*, i8** %5, align 16, !tbaa !6
  %vbase.offset.ptr4.i = getelementptr i8, i8* %vtable3.i, i64 -24
  %6 = bitcast i8* %vbase.offset.ptr4.i to i64*
  %vbase.offset5.i = load i64, i64* %6, align 8
  %7 = bitcast %"class.std::basic_ofstream"* %arrayidx4 to i8*
  %add.ptr6.i = getelementptr inbounds i8, i8* %7, i64 %vbase.offset5.i
  %8 = bitcast i8* %add.ptr6.i to %"class.std::basic_ios"*
  br i1 %tobool.i, label %if.then.i, label %if.else.i

if.then.i:                                        ; preds = %call2.i.i.noexc
  %_M_streambuf_state.i.i.i = getelementptr inbounds i8, i8* %add.ptr6.i, i64 32
  %9 = bitcast i8* %_M_streambuf_state.i.i.i to i32*
  %10 = load i32, i32* %9, align 8, !tbaa !8
  %or.i.i.i = or i32 %10, 4
  invoke void @_ZNSt9basic_iosIcSt11char_traitsIcEE5clearESt12_Ios_Iostate(%"class.std::basic_ios"* nonnull %8, i32 %or.i.i.i)
          to label %invoke.cont19 unwind label %lpad16

if.else.i:                                        ; preds = %call2.i.i.noexc
  invoke void @_ZNSt9basic_iosIcSt11char_traitsIcEE5clearESt12_Ios_Iostate(%"class.std::basic_ios"* nonnull %8, i32 0)
          to label %invoke.cont19 unwind label %lpad16

invoke.cont19:                                    ; preds = %if.else.i, %if.then.i
  %11 = load i8*, i8** %_M_p.i.i.i.i, align 8, !tbaa !17
  %arrayidx.i.i = getelementptr inbounds i8, i8* %11, i64 -24
  %12 = bitcast i8* %arrayidx.i.i to %"struct.std::basic_string<char, std::char_traits<char>, std::allocator<char> >::_Rep"*
  %13 = getelementptr inbounds %"class.std::ios_base::Init", %"class.std::ios_base::Init"* %ref.tmp.i, i64 0, i32 0
  call void @llvm.lifetime.start.p0i8(i64 1, i8* nonnull %13) #3
  %cmp.i.i = icmp eq i8* %arrayidx.i.i, bitcast ([0 x i64]* @_ZNSs4_Rep20_S_empty_rep_storageE to i8*)
  br i1 %cmp.i.i, label %_ZNSsD2Ev.exit, label %if.then.i.i, !prof !22

if.then.i.i:                                      ; preds = %invoke.cont19
  %_M_refcount.i.i = getelementptr inbounds i8, i8* %11, i64 -8
  %14 = bitcast i8* %_M_refcount.i.i to i32*
  br i1 icmp ne (i8* bitcast (i32 (i32*, void (i8*)*)* @__pthread_key_create to i8*), i8* null), label %if.then.i.i.i, label %if.else.i.i.i

if.then.i.i.i:                                    ; preds = %if.then.i.i
  %15 = atomicrmw volatile add i32* %14, i32 -1 acq_rel
  br label %invoke.cont.i.i

if.else.i.i.i:                                    ; preds = %if.then.i.i
  %16 = load i32, i32* %14, align 4, !tbaa !23
  %add.i.i.i.i = add nsw i32 %16, -1
  store i32 %add.i.i.i.i, i32* %14, align 4, !tbaa !23
  br label %invoke.cont.i.i

invoke.cont.i.i:                                  ; preds = %if.else.i.i.i, %if.then.i.i.i
  %retval.0.i.i.i = phi i32 [ %15, %if.then.i.i.i ], [ %16, %if.else.i.i.i ]
  %cmp3.i.i = icmp slt i32 %retval.0.i.i.i, 1
  br i1 %cmp3.i.i, label %if.then4.i.i, label %_ZNSsD2Ev.exit

if.then4.i.i:                                     ; preds = %invoke.cont.i.i
  call void @_ZNSs4_Rep10_M_destroyERKSaIcE(%"struct.std::basic_string<char, std::char_traits<char>, std::allocator<char> >::_Rep"* nonnull %12, %"class.std::ios_base::Init"* nonnull dereferenceable(1) %ref.tmp.i) #3
  br label %_ZNSsD2Ev.exit

_ZNSsD2Ev.exit:                                   ; preds = %if.then4.i.i, %invoke.cont.i.i, %invoke.cont19
  call void @llvm.lifetime.end.p0i8(i64 1, i8* nonnull %13) #3
  %_M_p.i.i.i47 = getelementptr inbounds %"class.std::basic_string", %"class.std::basic_string"* %agg.tmp10, i64 0, i32 0, i32 0
  %17 = load i8*, i8** %_M_p.i.i.i47, align 8, !tbaa !17
  %arrayidx.i.i48 = getelementptr inbounds i8, i8* %17, i64 -24
  %18 = bitcast i8* %arrayidx.i.i48 to %"struct.std::basic_string<char, std::char_traits<char>, std::allocator<char> >::_Rep"*
  %19 = getelementptr inbounds %"class.std::ios_base::Init", %"class.std::ios_base::Init"* %ref.tmp.i46, i64 0, i32 0
  call void @llvm.lifetime.start.p0i8(i64 1, i8* nonnull %19) #3
  %cmp.i.i49 = icmp eq i8* %arrayidx.i.i48, bitcast ([0 x i64]* @_ZNSs4_Rep20_S_empty_rep_storageE to i8*)
  br i1 %cmp.i.i49, label %_ZNSsD2Ev.exit59, label %if.then.i.i51, !prof !22

if.then.i.i51:                                    ; preds = %_ZNSsD2Ev.exit
  %_M_refcount.i.i50 = getelementptr inbounds i8, i8* %17, i64 -8
  %20 = bitcast i8* %_M_refcount.i.i50 to i32*
  br i1 icmp ne (i8* bitcast (i32 (i32*, void (i8*)*)* @__pthread_key_create to i8*), i8* null), label %if.then.i.i.i52, label %if.else.i.i.i54

if.then.i.i.i52:                                  ; preds = %if.then.i.i51
  %21 = atomicrmw volatile add i32* %20, i32 -1 acq_rel
  br label %invoke.cont.i.i57

if.else.i.i.i54:                                  ; preds = %if.then.i.i51
  %22 = load i32, i32* %20, align 4, !tbaa !23
  %add.i.i.i.i53 = add nsw i32 %22, -1
  store i32 %add.i.i.i.i53, i32* %20, align 4, !tbaa !23
  br label %invoke.cont.i.i57

invoke.cont.i.i57:                                ; preds = %if.else.i.i.i54, %if.then.i.i.i52
  %retval.0.i.i.i55 = phi i32 [ %21, %if.then.i.i.i52 ], [ %22, %if.else.i.i.i54 ]
  %cmp3.i.i56 = icmp slt i32 %retval.0.i.i.i55, 1
  br i1 %cmp3.i.i56, label %if.then4.i.i58, label %_ZNSsD2Ev.exit59

if.then4.i.i58:                                   ; preds = %invoke.cont.i.i57
  call void @_ZNSs4_Rep10_M_destroyERKSaIcE(%"struct.std::basic_string<char, std::char_traits<char>, std::allocator<char> >::_Rep"* nonnull %18, %"class.std::ios_base::Init"* nonnull dereferenceable(1) %ref.tmp.i46) #3
  br label %_ZNSsD2Ev.exit59

_ZNSsD2Ev.exit59:                                 ; preds = %if.then4.i.i58, %invoke.cont.i.i57, %_ZNSsD2Ev.exit
  call void @llvm.lifetime.end.p0i8(i64 1, i8* nonnull %19) #3
  call void @llvm.lifetime.end.p0i8(i64 1, i8* nonnull %3) #3
  %_M_p.i.i.i61 = getelementptr inbounds %"class.std::basic_string", %"class.std::basic_string"* %agg.tmp6, i64 0, i32 0, i32 0
  %23 = load i8*, i8** %_M_p.i.i.i61, align 8, !tbaa !17
  %arrayidx.i.i62 = getelementptr inbounds i8, i8* %23, i64 -24
  %24 = bitcast i8* %arrayidx.i.i62 to %"struct.std::basic_string<char, std::char_traits<char>, std::allocator<char> >::_Rep"*
  %25 = getelementptr inbounds %"class.std::ios_base::Init", %"class.std::ios_base::Init"* %ref.tmp.i60, i64 0, i32 0
  call void @llvm.lifetime.start.p0i8(i64 1, i8* nonnull %25) #3
  %cmp.i.i63 = icmp eq i8* %arrayidx.i.i62, bitcast ([0 x i64]* @_ZNSs4_Rep20_S_empty_rep_storageE to i8*)
  br i1 %cmp.i.i63, label %_ZNSsD2Ev.exit73, label %if.then.i.i65, !prof !22

if.then.i.i65:                                    ; preds = %_ZNSsD2Ev.exit59
  %_M_refcount.i.i64 = getelementptr inbounds i8, i8* %23, i64 -8
  %26 = bitcast i8* %_M_refcount.i.i64 to i32*
  br i1 icmp ne (i8* bitcast (i32 (i32*, void (i8*)*)* @__pthread_key_create to i8*), i8* null), label %if.then.i.i.i66, label %if.else.i.i.i68

if.then.i.i.i66:                                  ; preds = %if.then.i.i65
  %27 = atomicrmw volatile add i32* %26, i32 -1 acq_rel
  br label %invoke.cont.i.i71

if.else.i.i.i68:                                  ; preds = %if.then.i.i65
  %28 = load i32, i32* %26, align 4, !tbaa !23
  %add.i.i.i.i67 = add nsw i32 %28, -1
  store i32 %add.i.i.i.i67, i32* %26, align 4, !tbaa !23
  br label %invoke.cont.i.i71

invoke.cont.i.i71:                                ; preds = %if.else.i.i.i68, %if.then.i.i.i66
  %retval.0.i.i.i69 = phi i32 [ %27, %if.then.i.i.i66 ], [ %28, %if.else.i.i.i68 ]
  %cmp3.i.i70 = icmp slt i32 %retval.0.i.i.i69, 1
  br i1 %cmp3.i.i70, label %if.then4.i.i72, label %_ZNSsD2Ev.exit73

if.then4.i.i72:                                   ; preds = %invoke.cont.i.i71
  call void @_ZNSs4_Rep10_M_destroyERKSaIcE(%"struct.std::basic_string<char, std::char_traits<char>, std::allocator<char> >::_Rep"* nonnull %24, %"class.std::ios_base::Init"* nonnull dereferenceable(1) %ref.tmp.i60) #3
  br label %_ZNSsD2Ev.exit73

_ZNSsD2Ev.exit73:                                 ; preds = %if.then4.i.i72, %invoke.cont.i.i71, %_ZNSsD2Ev.exit59
  call void @llvm.lifetime.end.p0i8(i64 1, i8* nonnull %25) #3
  call void @llvm.lifetime.end.p0i8(i64 1, i8* nonnull %2) #3
  %_M_p.i.i.i75 = getelementptr inbounds %"class.std::basic_string", %"class.std::basic_string"* %agg.tmp, i64 0, i32 0, i32 0
  %29 = load i8*, i8** %_M_p.i.i.i75, align 8, !tbaa !17
  %arrayidx.i.i76 = getelementptr inbounds i8, i8* %29, i64 -24
  %30 = bitcast i8* %arrayidx.i.i76 to %"struct.std::basic_string<char, std::char_traits<char>, std::allocator<char> >::_Rep"*
  %31 = getelementptr inbounds %"class.std::ios_base::Init", %"class.std::ios_base::Init"* %ref.tmp.i74, i64 0, i32 0
  call void @llvm.lifetime.start.p0i8(i64 1, i8* nonnull %31) #3
  %cmp.i.i77 = icmp eq i8* %arrayidx.i.i76, bitcast ([0 x i64]* @_ZNSs4_Rep20_S_empty_rep_storageE to i8*)
  br i1 %cmp.i.i77, label %_ZNSsD2Ev.exit87, label %if.then.i.i79, !prof !22

if.then.i.i79:                                    ; preds = %_ZNSsD2Ev.exit73
  %_M_refcount.i.i78 = getelementptr inbounds i8, i8* %29, i64 -8
  %32 = bitcast i8* %_M_refcount.i.i78 to i32*
  br i1 icmp ne (i8* bitcast (i32 (i32*, void (i8*)*)* @__pthread_key_create to i8*), i8* null), label %if.then.i.i.i80, label %if.else.i.i.i82

if.then.i.i.i80:                                  ; preds = %if.then.i.i79
  %33 = atomicrmw volatile add i32* %32, i32 -1 acq_rel
  br label %invoke.cont.i.i85

if.else.i.i.i82:                                  ; preds = %if.then.i.i79
  %34 = load i32, i32* %32, align 4, !tbaa !23
  %add.i.i.i.i81 = add nsw i32 %34, -1
  store i32 %add.i.i.i.i81, i32* %32, align 4, !tbaa !23
  br label %invoke.cont.i.i85

invoke.cont.i.i85:                                ; preds = %if.else.i.i.i82, %if.then.i.i.i80
  %retval.0.i.i.i83 = phi i32 [ %33, %if.then.i.i.i80 ], [ %34, %if.else.i.i.i82 ]
  %cmp3.i.i84 = icmp slt i32 %retval.0.i.i.i83, 1
  br i1 %cmp3.i.i84, label %if.then4.i.i86, label %_ZNSsD2Ev.exit87

if.then4.i.i86:                                   ; preds = %invoke.cont.i.i85
  call void @_ZNSs4_Rep10_M_destroyERKSaIcE(%"struct.std::basic_string<char, std::char_traits<char>, std::allocator<char> >::_Rep"* nonnull %30, %"class.std::ios_base::Init"* nonnull dereferenceable(1) %ref.tmp.i74) #3
  br label %_ZNSsD2Ev.exit87

_ZNSsD2Ev.exit87:                                 ; preds = %if.then4.i.i86, %invoke.cont.i.i85, %_ZNSsD2Ev.exit73
  call void @llvm.lifetime.end.p0i8(i64 1, i8* nonnull %31) #3
  call void @llvm.lifetime.end.p0i8(i64 1, i8* nonnull %1) #3
  call void @llvm.lifetime.end.p0i8(i64 8, i8* nonnull %0) #3
  br label %if.end

lpad:                                             ; preds = %if.then
  %35 = landingpad { i8*, i32 }
          cleanup
  %36 = extractvalue { i8*, i32 } %35, 0
  %37 = extractvalue { i8*, i32 } %35, 1
  br label %ehcleanup26

lpad8:                                            ; preds = %invoke.cont
  %38 = landingpad { i8*, i32 }
          cleanup
  %39 = extractvalue { i8*, i32 } %38, 0
  %40 = extractvalue { i8*, i32 } %38, 1
  br label %ehcleanup23

lpad12:                                           ; preds = %invoke.cont9
  %41 = landingpad { i8*, i32 }
          cleanup
  %42 = extractvalue { i8*, i32 } %41, 0
  %43 = extractvalue { i8*, i32 } %41, 1
  br label %ehcleanup20

lpad14:                                           ; preds = %invoke.cont13
  %44 = landingpad { i8*, i32 }
          cleanup
  %45 = extractvalue { i8*, i32 } %44, 0
  %46 = extractvalue { i8*, i32 } %44, 1
  br label %ehcleanup

lpad16:                                           ; preds = %if.else.i, %if.then.i, %invoke.cont15
  %47 = landingpad { i8*, i32 }
          cleanup
  %48 = extractvalue { i8*, i32 } %47, 0
  %49 = extractvalue { i8*, i32 } %47, 1
  %50 = load i8*, i8** %_M_p.i.i.i.i, align 8, !tbaa !17
  %arrayidx.i.i93 = getelementptr inbounds i8, i8* %50, i64 -24
  %51 = bitcast i8* %arrayidx.i.i93 to %"struct.std::basic_string<char, std::char_traits<char>, std::allocator<char> >::_Rep"*
  %52 = getelementptr inbounds %"class.std::ios_base::Init", %"class.std::ios_base::Init"* %ref.tmp.i91, i64 0, i32 0
  call void @llvm.lifetime.start.p0i8(i64 1, i8* nonnull %52) #3
  %cmp.i.i94 = icmp eq i8* %arrayidx.i.i93, bitcast ([0 x i64]* @_ZNSs4_Rep20_S_empty_rep_storageE to i8*)
  br i1 %cmp.i.i94, label %_ZNSsD2Ev.exit104, label %if.then.i.i96, !prof !22

if.then.i.i96:                                    ; preds = %lpad16
  %_M_refcount.i.i95 = getelementptr inbounds i8, i8* %50, i64 -8
  %53 = bitcast i8* %_M_refcount.i.i95 to i32*
  br i1 icmp ne (i8* bitcast (i32 (i32*, void (i8*)*)* @__pthread_key_create to i8*), i8* null), label %if.then.i.i.i97, label %if.else.i.i.i99

if.then.i.i.i97:                                  ; preds = %if.then.i.i96
  %54 = atomicrmw volatile add i32* %53, i32 -1 acq_rel
  br label %invoke.cont.i.i102

if.else.i.i.i99:                                  ; preds = %if.then.i.i96
  %55 = load i32, i32* %53, align 4, !tbaa !23
  %add.i.i.i.i98 = add nsw i32 %55, -1
  store i32 %add.i.i.i.i98, i32* %53, align 4, !tbaa !23
  br label %invoke.cont.i.i102

invoke.cont.i.i102:                               ; preds = %if.else.i.i.i99, %if.then.i.i.i97
  %retval.0.i.i.i100 = phi i32 [ %54, %if.then.i.i.i97 ], [ %55, %if.else.i.i.i99 ]
  %cmp3.i.i101 = icmp slt i32 %retval.0.i.i.i100, 1
  br i1 %cmp3.i.i101, label %if.then4.i.i103, label %_ZNSsD2Ev.exit104

if.then4.i.i103:                                  ; preds = %invoke.cont.i.i102
  call void @_ZNSs4_Rep10_M_destroyERKSaIcE(%"struct.std::basic_string<char, std::char_traits<char>, std::allocator<char> >::_Rep"* nonnull %51, %"class.std::ios_base::Init"* nonnull dereferenceable(1) %ref.tmp.i91) #3
  br label %_ZNSsD2Ev.exit104

_ZNSsD2Ev.exit104:                                ; preds = %if.then4.i.i103, %invoke.cont.i.i102, %lpad16
  call void @llvm.lifetime.end.p0i8(i64 1, i8* nonnull %52) #3
  br label %ehcleanup

ehcleanup:                                        ; preds = %_ZNSsD2Ev.exit104, %lpad14
  %exn.slot.0 = phi i8* [ %48, %_ZNSsD2Ev.exit104 ], [ %45, %lpad14 ]
  %ehselector.slot.0 = phi i32 [ %49, %_ZNSsD2Ev.exit104 ], [ %46, %lpad14 ]
  %_M_p.i.i.i106 = getelementptr inbounds %"class.std::basic_string", %"class.std::basic_string"* %agg.tmp10, i64 0, i32 0, i32 0
  %56 = load i8*, i8** %_M_p.i.i.i106, align 8, !tbaa !17
  %arrayidx.i.i107 = getelementptr inbounds i8, i8* %56, i64 -24
  %57 = bitcast i8* %arrayidx.i.i107 to %"struct.std::basic_string<char, std::char_traits<char>, std::allocator<char> >::_Rep"*
  %58 = getelementptr inbounds %"class.std::ios_base::Init", %"class.std::ios_base::Init"* %ref.tmp.i105, i64 0, i32 0
  call void @llvm.lifetime.start.p0i8(i64 1, i8* nonnull %58) #3
  %cmp.i.i108 = icmp eq i8* %arrayidx.i.i107, bitcast ([0 x i64]* @_ZNSs4_Rep20_S_empty_rep_storageE to i8*)
  br i1 %cmp.i.i108, label %_ZNSsD2Ev.exit118, label %if.then.i.i110, !prof !22

if.then.i.i110:                                   ; preds = %ehcleanup
  %_M_refcount.i.i109 = getelementptr inbounds i8, i8* %56, i64 -8
  %59 = bitcast i8* %_M_refcount.i.i109 to i32*
  br i1 icmp ne (i8* bitcast (i32 (i32*, void (i8*)*)* @__pthread_key_create to i8*), i8* null), label %if.then.i.i.i111, label %if.else.i.i.i113

if.then.i.i.i111:                                 ; preds = %if.then.i.i110
  %60 = atomicrmw volatile add i32* %59, i32 -1 acq_rel
  br label %invoke.cont.i.i116

if.else.i.i.i113:                                 ; preds = %if.then.i.i110
  %61 = load i32, i32* %59, align 4, !tbaa !23
  %add.i.i.i.i112 = add nsw i32 %61, -1
  store i32 %add.i.i.i.i112, i32* %59, align 4, !tbaa !23
  br label %invoke.cont.i.i116

invoke.cont.i.i116:                               ; preds = %if.else.i.i.i113, %if.then.i.i.i111
  %retval.0.i.i.i114 = phi i32 [ %60, %if.then.i.i.i111 ], [ %61, %if.else.i.i.i113 ]
  %cmp3.i.i115 = icmp slt i32 %retval.0.i.i.i114, 1
  br i1 %cmp3.i.i115, label %if.then4.i.i117, label %_ZNSsD2Ev.exit118

if.then4.i.i117:                                  ; preds = %invoke.cont.i.i116
  call void @_ZNSs4_Rep10_M_destroyERKSaIcE(%"struct.std::basic_string<char, std::char_traits<char>, std::allocator<char> >::_Rep"* nonnull %57, %"class.std::ios_base::Init"* nonnull dereferenceable(1) %ref.tmp.i105) #3
  br label %_ZNSsD2Ev.exit118

_ZNSsD2Ev.exit118:                                ; preds = %if.then4.i.i117, %invoke.cont.i.i116, %ehcleanup
  call void @llvm.lifetime.end.p0i8(i64 1, i8* nonnull %58) #3
  br label %ehcleanup20

ehcleanup20:                                      ; preds = %_ZNSsD2Ev.exit118, %lpad12
  %exn.slot.1 = phi i8* [ %exn.slot.0, %_ZNSsD2Ev.exit118 ], [ %42, %lpad12 ]
  %ehselector.slot.1 = phi i32 [ %ehselector.slot.0, %_ZNSsD2Ev.exit118 ], [ %43, %lpad12 ]
  call void @llvm.lifetime.end.p0i8(i64 1, i8* nonnull %3) #3
  %_M_p.i.i.i120 = getelementptr inbounds %"class.std::basic_string", %"class.std::basic_string"* %agg.tmp6, i64 0, i32 0, i32 0
  %62 = load i8*, i8** %_M_p.i.i.i120, align 8, !tbaa !17
  %arrayidx.i.i121 = getelementptr inbounds i8, i8* %62, i64 -24
  %63 = bitcast i8* %arrayidx.i.i121 to %"struct.std::basic_string<char, std::char_traits<char>, std::allocator<char> >::_Rep"*
  %64 = getelementptr inbounds %"class.std::ios_base::Init", %"class.std::ios_base::Init"* %ref.tmp.i119, i64 0, i32 0
  call void @llvm.lifetime.start.p0i8(i64 1, i8* nonnull %64) #3
  %cmp.i.i122 = icmp eq i8* %arrayidx.i.i121, bitcast ([0 x i64]* @_ZNSs4_Rep20_S_empty_rep_storageE to i8*)
  br i1 %cmp.i.i122, label %_ZNSsD2Ev.exit132, label %if.then.i.i124, !prof !22

if.then.i.i124:                                   ; preds = %ehcleanup20
  %_M_refcount.i.i123 = getelementptr inbounds i8, i8* %62, i64 -8
  %65 = bitcast i8* %_M_refcount.i.i123 to i32*
  br i1 icmp ne (i8* bitcast (i32 (i32*, void (i8*)*)* @__pthread_key_create to i8*), i8* null), label %if.then.i.i.i125, label %if.else.i.i.i127

if.then.i.i.i125:                                 ; preds = %if.then.i.i124
  %66 = atomicrmw volatile add i32* %65, i32 -1 acq_rel
  br label %invoke.cont.i.i130

if.else.i.i.i127:                                 ; preds = %if.then.i.i124
  %67 = load i32, i32* %65, align 4, !tbaa !23
  %add.i.i.i.i126 = add nsw i32 %67, -1
  store i32 %add.i.i.i.i126, i32* %65, align 4, !tbaa !23
  br label %invoke.cont.i.i130

invoke.cont.i.i130:                               ; preds = %if.else.i.i.i127, %if.then.i.i.i125
  %retval.0.i.i.i128 = phi i32 [ %66, %if.then.i.i.i125 ], [ %67, %if.else.i.i.i127 ]
  %cmp3.i.i129 = icmp slt i32 %retval.0.i.i.i128, 1
  br i1 %cmp3.i.i129, label %if.then4.i.i131, label %_ZNSsD2Ev.exit132

if.then4.i.i131:                                  ; preds = %invoke.cont.i.i130
  call void @_ZNSs4_Rep10_M_destroyERKSaIcE(%"struct.std::basic_string<char, std::char_traits<char>, std::allocator<char> >::_Rep"* nonnull %63, %"class.std::ios_base::Init"* nonnull dereferenceable(1) %ref.tmp.i119) #3
  br label %_ZNSsD2Ev.exit132

_ZNSsD2Ev.exit132:                                ; preds = %if.then4.i.i131, %invoke.cont.i.i130, %ehcleanup20
  call void @llvm.lifetime.end.p0i8(i64 1, i8* nonnull %64) #3
  br label %ehcleanup23

ehcleanup23:                                      ; preds = %_ZNSsD2Ev.exit132, %lpad8
  %exn.slot.2 = phi i8* [ %exn.slot.1, %_ZNSsD2Ev.exit132 ], [ %39, %lpad8 ]
  %ehselector.slot.2 = phi i32 [ %ehselector.slot.1, %_ZNSsD2Ev.exit132 ], [ %40, %lpad8 ]
  call void @llvm.lifetime.end.p0i8(i64 1, i8* nonnull %2) #3
  %_M_p.i.i.i141 = getelementptr inbounds %"class.std::basic_string", %"class.std::basic_string"* %agg.tmp, i64 0, i32 0, i32 0
  %68 = load i8*, i8** %_M_p.i.i.i141, align 8, !tbaa !17
  %arrayidx.i.i142 = getelementptr inbounds i8, i8* %68, i64 -24
  %69 = bitcast i8* %arrayidx.i.i142 to %"struct.std::basic_string<char, std::char_traits<char>, std::allocator<char> >::_Rep"*
  %70 = getelementptr inbounds %"class.std::ios_base::Init", %"class.std::ios_base::Init"* %ref.tmp.i140, i64 0, i32 0
  call void @llvm.lifetime.start.p0i8(i64 1, i8* nonnull %70) #3
  %cmp.i.i143 = icmp eq i8* %arrayidx.i.i142, bitcast ([0 x i64]* @_ZNSs4_Rep20_S_empty_rep_storageE to i8*)
  br i1 %cmp.i.i143, label %_ZNSsD2Ev.exit153, label %if.then.i.i145, !prof !22

if.then.i.i145:                                   ; preds = %ehcleanup23
  %_M_refcount.i.i144 = getelementptr inbounds i8, i8* %68, i64 -8
  %71 = bitcast i8* %_M_refcount.i.i144 to i32*
  br i1 icmp ne (i8* bitcast (i32 (i32*, void (i8*)*)* @__pthread_key_create to i8*), i8* null), label %if.then.i.i.i146, label %if.else.i.i.i148

if.then.i.i.i146:                                 ; preds = %if.then.i.i145
  %72 = atomicrmw volatile add i32* %71, i32 -1 acq_rel
  br label %invoke.cont.i.i151

if.else.i.i.i148:                                 ; preds = %if.then.i.i145
  %73 = load i32, i32* %71, align 4, !tbaa !23
  %add.i.i.i.i147 = add nsw i32 %73, -1
  store i32 %add.i.i.i.i147, i32* %71, align 4, !tbaa !23
  br label %invoke.cont.i.i151

invoke.cont.i.i151:                               ; preds = %if.else.i.i.i148, %if.then.i.i.i146
  %retval.0.i.i.i149 = phi i32 [ %72, %if.then.i.i.i146 ], [ %73, %if.else.i.i.i148 ]
  %cmp3.i.i150 = icmp slt i32 %retval.0.i.i.i149, 1
  br i1 %cmp3.i.i150, label %if.then4.i.i152, label %_ZNSsD2Ev.exit153

if.then4.i.i152:                                  ; preds = %invoke.cont.i.i151
  call void @_ZNSs4_Rep10_M_destroyERKSaIcE(%"struct.std::basic_string<char, std::char_traits<char>, std::allocator<char> >::_Rep"* nonnull %69, %"class.std::ios_base::Init"* nonnull dereferenceable(1) %ref.tmp.i140) #3
  br label %_ZNSsD2Ev.exit153

_ZNSsD2Ev.exit153:                                ; preds = %if.then4.i.i152, %invoke.cont.i.i151, %ehcleanup23
  call void @llvm.lifetime.end.p0i8(i64 1, i8* nonnull %70) #3
  br label %ehcleanup26

ehcleanup26:                                      ; preds = %_ZNSsD2Ev.exit153, %lpad
  %exn.slot.3 = phi i8* [ %exn.slot.2, %_ZNSsD2Ev.exit153 ], [ %36, %lpad ]
  %ehselector.slot.3 = phi i32 [ %ehselector.slot.2, %_ZNSsD2Ev.exit153 ], [ %37, %lpad ]
  call void @llvm.lifetime.end.p0i8(i64 1, i8* nonnull %1) #3
  call void @llvm.lifetime.end.p0i8(i64 8, i8* nonnull %0) #3
  %lpad.val = insertvalue { i8*, i32 } undef, i8* %exn.slot.3, 0
  %lpad.val40 = insertvalue { i8*, i32 } %lpad.val, i32 %ehselector.slot.3, 1
  resume { i8*, i32 } %lpad.val40

if.end:                                           ; preds = %_ZNSsD2Ev.exit87, %entry
  %call29 = call i32 @omp_get_thread_num() #3
  %idxprom30 = sext i32 %call29 to i64
  %arrayidx31 = getelementptr inbounds [1024 x %"class.std::basic_ofstream"], [1024 x %"class.std::basic_ofstream"]* @f3, i64 0, i64 %idxprom30
  %74 = bitcast %"class.std::basic_ofstream"* %arrayidx31 to %"class.std::basic_ostream"*
  %tobool.i154 = icmp eq i8* %acc_kernel_name, null
  br i1 %tobool.i154, label %if.then.i161, label %if.else.i164

if.then.i161:                                     ; preds = %if.end
  %75 = bitcast %"class.std::basic_ofstream"* %arrayidx31 to i8**
  %vtable.i155 = load i8*, i8** %75, align 16, !tbaa !6
  %vbase.offset.ptr.i156 = getelementptr i8, i8* %vtable.i155, i64 -24
  %76 = bitcast i8* %vbase.offset.ptr.i156 to i64*
  %vbase.offset.i157 = load i64, i64* %76, align 8
  %77 = bitcast %"class.std::basic_ofstream"* %arrayidx31 to i8*
  %add.ptr.i158 = getelementptr inbounds i8, i8* %77, i64 %vbase.offset.i157
  %78 = bitcast i8* %add.ptr.i158 to %"class.std::basic_ios"*
  %_M_streambuf_state.i.i.i159 = getelementptr inbounds i8, i8* %add.ptr.i158, i64 32
  %79 = bitcast i8* %_M_streambuf_state.i.i.i159 to i32*
  %80 = load i32, i32* %79, align 8, !tbaa !8
  %or.i.i.i160 = or i32 %80, 1
  call void @_ZNSt9basic_iosIcSt11char_traitsIcEE5clearESt12_Ios_Iostate(%"class.std::basic_ios"* nonnull %78, i32 %or.i.i.i160)
  br label %_ZStlsISt11char_traitsIcEERSt13basic_ostreamIcT_ES5_PKc.exit165

if.else.i164:                                     ; preds = %if.end
  %call.i.i162 = call i64 @strlen(i8* nonnull %acc_kernel_name) #3
  %call1.i163 = call dereferenceable(272) %"class.std::basic_ostream"* @_ZSt16__ostream_insertIcSt11char_traitsIcEERSt13basic_ostreamIT_T0_ES6_PKS3_l(%"class.std::basic_ostream"* nonnull dereferenceable(272) %74, i8* nonnull %acc_kernel_name, i64 %call.i.i162)
  br label %_ZStlsISt11char_traitsIcEERSt13basic_ostreamIcT_ES5_PKc.exit165

_ZStlsISt11char_traitsIcEERSt13basic_ostreamIcT_ES5_PKc.exit165: ; preds = %if.else.i164, %if.then.i161
  %call1.i167 = call dereferenceable(272) %"class.std::basic_ostream"* @_ZSt16__ostream_insertIcSt11char_traitsIcEERSt13basic_ostreamIT_T0_ES6_PKS3_l(%"class.std::basic_ostream"* nonnull dereferenceable(272) %74, i8* nonnull getelementptr inbounds ([2 x i8], [2 x i8]* @.str.9, i64 0, i64 0), i64 1)
  %tobool.i133 = icmp eq i8* %node_id, null
  br i1 %tobool.i133, label %if.then.i136, label %if.else.i139

if.then.i136:                                     ; preds = %_ZStlsISt11char_traitsIcEERSt13basic_ostreamIcT_ES5_PKc.exit165
  %81 = bitcast %"class.std::basic_ofstream"* %arrayidx31 to i8**
  %vtable.i = load i8*, i8** %81, align 16, !tbaa !6
  %vbase.offset.ptr.i = getelementptr i8, i8* %vtable.i, i64 -24
  %82 = bitcast i8* %vbase.offset.ptr.i to i64*
  %vbase.offset.i = load i64, i64* %82, align 8
  %83 = bitcast %"class.std::basic_ofstream"* %arrayidx31 to i8*
  %add.ptr.i = getelementptr inbounds i8, i8* %83, i64 %vbase.offset.i
  %84 = bitcast i8* %add.ptr.i to %"class.std::basic_ios"*
  %_M_streambuf_state.i.i.i134 = getelementptr inbounds i8, i8* %add.ptr.i, i64 32
  %85 = bitcast i8* %_M_streambuf_state.i.i.i134 to i32*
  %86 = load i32, i32* %85, align 8, !tbaa !8
  %or.i.i.i135 = or i32 %86, 1
  call void @_ZNSt9basic_iosIcSt11char_traitsIcEE5clearESt12_Ios_Iostate(%"class.std::basic_ios"* nonnull %84, i32 %or.i.i.i135)
  br label %_ZStlsISt11char_traitsIcEERSt13basic_ostreamIcT_ES5_PKc.exit

if.else.i139:                                     ; preds = %_ZStlsISt11char_traitsIcEERSt13basic_ostreamIcT_ES5_PKc.exit165
  %call.i.i137 = call i64 @strlen(i8* nonnull %node_id) #3
  %call1.i138 = call dereferenceable(272) %"class.std::basic_ostream"* @_ZSt16__ostream_insertIcSt11char_traitsIcEERSt13basic_ostreamIT_T0_ES6_PKS3_l(%"class.std::basic_ostream"* nonnull dereferenceable(272) %74, i8* nonnull %node_id, i64 %call.i.i137)
  br label %_ZStlsISt11char_traitsIcEERSt13basic_ostreamIcT_ES5_PKc.exit

_ZStlsISt11char_traitsIcEERSt13basic_ostreamIcT_ES5_PKc.exit: ; preds = %if.else.i139, %if.then.i136
  %call1.i89 = call dereferenceable(272) %"class.std::basic_ostream"* @_ZSt16__ostream_insertIcSt11char_traitsIcEERSt13basic_ostreamIT_T0_ES6_PKS3_l(%"class.std::basic_ostream"* nonnull dereferenceable(272) %74, i8* nonnull getelementptr inbounds ([2 x i8], [2 x i8]* @.str.9, i64 0, i64 0), i64 1)
  %call36 = call dereferenceable(272) %"class.std::basic_ostream"* @_ZNSolsEi(%"class.std::basic_ostream"* nonnull %74, i32 %working_mode)
  %call1.i43 = call dereferenceable(272) %"class.std::basic_ostream"* @_ZSt16__ostream_insertIcSt11char_traitsIcEERSt13basic_ostreamIT_T0_ES6_PKS3_l(%"class.std::basic_ostream"* nonnull dereferenceable(272) %call36, i8* nonnull getelementptr inbounds ([2 x i8], [2 x i8]* @.str.9, i64 0, i64 0), i64 1)
  %call38 = call dereferenceable(272) %"class.std::basic_ostream"* @_ZNSolsEi(%"class.std::basic_ostream"* nonnull %call36, i32 %size)
  %call1.i = call dereferenceable(272) %"class.std::basic_ostream"* @_ZSt16__ostream_insertIcSt11char_traitsIcEERSt13basic_ostreamIT_T0_ES6_PKS3_l(%"class.std::basic_ostream"* nonnull dereferenceable(272) %call38, i8* nonnull getelementptr inbounds ([2 x i8], [2 x i8]* @.str.1, i64 0, i64 0), i64 1)
  ret void
}

; Function Attrs: noinline uwtable
define dso_local void @print_conv2d_layer(i8* %acc_kernel_name, i8* %kernel_type, i8* %run_dir, i8* %node_id, i32 %batch, i32 %in_channels, i32 %in_height, i32 %in_width, i32 %out_channels, i32 %filter_height, i32 %filter_width, i1 zeroext %zero_pad, i32 %vert_conv_stride, i32 %horiz_conv_stride, i1 zeroext %pooling, i32 %pool_height, i32 %pool_width, i32 %vertical_pool_stride, i32 %horizontal_pool_stride) #6 personality i8* bitcast (i32 (...)* @__gxx_personality_v0 to i8*) {
entry:
  %ref.tmp.i164 = alloca %"class.std::ios_base::Init", align 1
  %ref.tmp.i147 = alloca %"class.std::ios_base::Init", align 1
  %ref.tmp.i133 = alloca %"class.std::ios_base::Init", align 1
  %ref.tmp.i119 = alloca %"class.std::ios_base::Init", align 1
  %ref.tmp.i102 = alloca %"class.std::ios_base::Init", align 1
  %ref.tmp.i88 = alloca %"class.std::ios_base::Init", align 1
  %ref.tmp.i74 = alloca %"class.std::ios_base::Init", align 1
  %ref.tmp.i = alloca %"class.std::ios_base::Init", align 1
  %ref.tmp = alloca %"class.std::basic_string", align 8
  %agg.tmp = alloca %"class.std::basic_string", align 8
  %ref.tmp6 = alloca %"class.std::ios_base::Init", align 1
  %agg.tmp7 = alloca %"class.std::basic_string", align 8
  %ref.tmp8 = alloca %"class.std::ios_base::Init", align 1
  %agg.tmp11 = alloca %"class.std::basic_string", align 8
  %ref.tmp12 = alloca %"class.std::ios_base::Init", align 1
  %call = tail call i32 @omp_get_thread_num() #3
  %idxprom = sext i32 %call to i64
  %_M_file.i.i = getelementptr inbounds [1024 x %"class.std::basic_ofstream"], [1024 x %"class.std::basic_ofstream"]* @f3, i64 0, i64 %idxprom, i32 1, i32 2
  %call.i.i = tail call zeroext i1 @_ZNKSt12__basic_fileIcE7is_openEv(%"class.std::__basic_file"* nonnull %_M_file.i.i) #21
  br i1 %call.i.i, label %if.end, label %if.then

if.then:                                          ; preds = %entry
  %call3 = tail call i32 @omp_get_thread_num() #3
  %idxprom4 = sext i32 %call3 to i64
  %arrayidx5 = getelementptr inbounds [1024 x %"class.std::basic_ofstream"], [1024 x %"class.std::basic_ofstream"]* @f3, i64 0, i64 %idxprom4
  %0 = bitcast %"class.std::basic_string"* %ref.tmp to i8*
  call void @llvm.lifetime.start.p0i8(i64 8, i8* nonnull %0) #3
  %1 = getelementptr inbounds %"class.std::ios_base::Init", %"class.std::ios_base::Init"* %ref.tmp6, i64 0, i32 0
  call void @llvm.lifetime.start.p0i8(i64 1, i8* nonnull %1) #3
  invoke void @_ZNSsC1EPKcRKSaIcE(%"class.std::basic_string"* nonnull %agg.tmp, i8* %run_dir, %"class.std::ios_base::Init"* nonnull dereferenceable(1) %ref.tmp6)
          to label %invoke.cont unwind label %lpad

invoke.cont:                                      ; preds = %if.then
  %2 = getelementptr inbounds %"class.std::ios_base::Init", %"class.std::ios_base::Init"* %ref.tmp8, i64 0, i32 0
  call void @llvm.lifetime.start.p0i8(i64 1, i8* nonnull %2) #3
  invoke void @_ZNSsC1EPKcRKSaIcE(%"class.std::basic_string"* nonnull %agg.tmp7, i8* %kernel_type, %"class.std::ios_base::Init"* nonnull dereferenceable(1) %ref.tmp8)
          to label %invoke.cont10 unwind label %lpad9

invoke.cont10:                                    ; preds = %invoke.cont
  %3 = getelementptr inbounds %"class.std::ios_base::Init", %"class.std::ios_base::Init"* %ref.tmp12, i64 0, i32 0
  call void @llvm.lifetime.start.p0i8(i64 1, i8* nonnull %3) #3
  invoke void @_ZNSsC1EPKcRKSaIcE(%"class.std::basic_string"* nonnull %agg.tmp11, i8* getelementptr inbounds ([8 x i8], [8 x i8]* @.str.16, i64 0, i64 0), %"class.std::ios_base::Init"* nonnull dereferenceable(1) %ref.tmp12)
          to label %invoke.cont14 unwind label %lpad13

invoke.cont14:                                    ; preds = %invoke.cont10
  invoke void @_Z12get_dir_nameSsSsSs(%"class.std::basic_string"* nonnull sret %ref.tmp, %"class.std::basic_string"* nonnull %agg.tmp, %"class.std::basic_string"* nonnull %agg.tmp7, %"class.std::basic_string"* nonnull %agg.tmp11)
          to label %invoke.cont16 unwind label %lpad15

invoke.cont16:                                    ; preds = %invoke.cont14
  %_M_filebuf.i = getelementptr inbounds [1024 x %"class.std::basic_ofstream"], [1024 x %"class.std::basic_ofstream"]* @f3, i64 0, i64 %idxprom4, i32 1
  %_M_p.i.i.i.i = getelementptr inbounds %"class.std::basic_string", %"class.std::basic_string"* %ref.tmp, i64 0, i32 0, i32 0
  %4 = load i8*, i8** %_M_p.i.i.i.i, align 8, !tbaa !17
  %call2.i.i72 = invoke %"class.std::basic_filebuf"* @_ZNSt13basic_filebufIcSt11char_traitsIcEE4openEPKcSt13_Ios_Openmode(%"class.std::basic_filebuf"* nonnull %_M_filebuf.i, i8* %4, i32 17)
          to label %call2.i.i.noexc unwind label %lpad17

call2.i.i.noexc:                                  ; preds = %invoke.cont16
  %tobool.i = icmp eq %"class.std::basic_filebuf"* %call2.i.i72, null
  %5 = bitcast %"class.std::basic_ofstream"* %arrayidx5 to i8**
  %vtable3.i = load i8*, i8** %5, align 16, !tbaa !6
  %vbase.offset.ptr4.i = getelementptr i8, i8* %vtable3.i, i64 -24
  %6 = bitcast i8* %vbase.offset.ptr4.i to i64*
  %vbase.offset5.i = load i64, i64* %6, align 8
  %7 = bitcast %"class.std::basic_ofstream"* %arrayidx5 to i8*
  %add.ptr6.i = getelementptr inbounds i8, i8* %7, i64 %vbase.offset5.i
  %8 = bitcast i8* %add.ptr6.i to %"class.std::basic_ios"*
  br i1 %tobool.i, label %if.then.i, label %if.else.i

if.then.i:                                        ; preds = %call2.i.i.noexc
  %_M_streambuf_state.i.i.i = getelementptr inbounds i8, i8* %add.ptr6.i, i64 32
  %9 = bitcast i8* %_M_streambuf_state.i.i.i to i32*
  %10 = load i32, i32* %9, align 8, !tbaa !8
  %or.i.i.i = or i32 %10, 4
  invoke void @_ZNSt9basic_iosIcSt11char_traitsIcEE5clearESt12_Ios_Iostate(%"class.std::basic_ios"* nonnull %8, i32 %or.i.i.i)
          to label %invoke.cont20 unwind label %lpad17

if.else.i:                                        ; preds = %call2.i.i.noexc
  invoke void @_ZNSt9basic_iosIcSt11char_traitsIcEE5clearESt12_Ios_Iostate(%"class.std::basic_ios"* nonnull %8, i32 0)
          to label %invoke.cont20 unwind label %lpad17

invoke.cont20:                                    ; preds = %if.else.i, %if.then.i
  %11 = load i8*, i8** %_M_p.i.i.i.i, align 8, !tbaa !17
  %arrayidx.i.i = getelementptr inbounds i8, i8* %11, i64 -24
  %12 = bitcast i8* %arrayidx.i.i to %"struct.std::basic_string<char, std::char_traits<char>, std::allocator<char> >::_Rep"*
  %13 = getelementptr inbounds %"class.std::ios_base::Init", %"class.std::ios_base::Init"* %ref.tmp.i, i64 0, i32 0
  call void @llvm.lifetime.start.p0i8(i64 1, i8* nonnull %13) #3
  %cmp.i.i = icmp eq i8* %arrayidx.i.i, bitcast ([0 x i64]* @_ZNSs4_Rep20_S_empty_rep_storageE to i8*)
  br i1 %cmp.i.i, label %_ZNSsD2Ev.exit, label %if.then.i.i, !prof !22

if.then.i.i:                                      ; preds = %invoke.cont20
  %_M_refcount.i.i = getelementptr inbounds i8, i8* %11, i64 -8
  %14 = bitcast i8* %_M_refcount.i.i to i32*
  br i1 icmp ne (i8* bitcast (i32 (i32*, void (i8*)*)* @__pthread_key_create to i8*), i8* null), label %if.then.i.i.i, label %if.else.i.i.i

if.then.i.i.i:                                    ; preds = %if.then.i.i
  %15 = atomicrmw volatile add i32* %14, i32 -1 acq_rel
  br label %invoke.cont.i.i

if.else.i.i.i:                                    ; preds = %if.then.i.i
  %16 = load i32, i32* %14, align 4, !tbaa !23
  %add.i.i.i.i = add nsw i32 %16, -1
  store i32 %add.i.i.i.i, i32* %14, align 4, !tbaa !23
  br label %invoke.cont.i.i

invoke.cont.i.i:                                  ; preds = %if.else.i.i.i, %if.then.i.i.i
  %retval.0.i.i.i = phi i32 [ %15, %if.then.i.i.i ], [ %16, %if.else.i.i.i ]
  %cmp3.i.i = icmp slt i32 %retval.0.i.i.i, 1
  br i1 %cmp3.i.i, label %if.then4.i.i, label %_ZNSsD2Ev.exit

if.then4.i.i:                                     ; preds = %invoke.cont.i.i
  call void @_ZNSs4_Rep10_M_destroyERKSaIcE(%"struct.std::basic_string<char, std::char_traits<char>, std::allocator<char> >::_Rep"* nonnull %12, %"class.std::ios_base::Init"* nonnull dereferenceable(1) %ref.tmp.i) #3
  br label %_ZNSsD2Ev.exit

_ZNSsD2Ev.exit:                                   ; preds = %if.then4.i.i, %invoke.cont.i.i, %invoke.cont20
  call void @llvm.lifetime.end.p0i8(i64 1, i8* nonnull %13) #3
  %_M_p.i.i.i75 = getelementptr inbounds %"class.std::basic_string", %"class.std::basic_string"* %agg.tmp11, i64 0, i32 0, i32 0
  %17 = load i8*, i8** %_M_p.i.i.i75, align 8, !tbaa !17
  %arrayidx.i.i76 = getelementptr inbounds i8, i8* %17, i64 -24
  %18 = bitcast i8* %arrayidx.i.i76 to %"struct.std::basic_string<char, std::char_traits<char>, std::allocator<char> >::_Rep"*
  %19 = getelementptr inbounds %"class.std::ios_base::Init", %"class.std::ios_base::Init"* %ref.tmp.i74, i64 0, i32 0
  call void @llvm.lifetime.start.p0i8(i64 1, i8* nonnull %19) #3
  %cmp.i.i77 = icmp eq i8* %arrayidx.i.i76, bitcast ([0 x i64]* @_ZNSs4_Rep20_S_empty_rep_storageE to i8*)
  br i1 %cmp.i.i77, label %_ZNSsD2Ev.exit87, label %if.then.i.i79, !prof !22

if.then.i.i79:                                    ; preds = %_ZNSsD2Ev.exit
  %_M_refcount.i.i78 = getelementptr inbounds i8, i8* %17, i64 -8
  %20 = bitcast i8* %_M_refcount.i.i78 to i32*
  br i1 icmp ne (i8* bitcast (i32 (i32*, void (i8*)*)* @__pthread_key_create to i8*), i8* null), label %if.then.i.i.i80, label %if.else.i.i.i82

if.then.i.i.i80:                                  ; preds = %if.then.i.i79
  %21 = atomicrmw volatile add i32* %20, i32 -1 acq_rel
  br label %invoke.cont.i.i85

if.else.i.i.i82:                                  ; preds = %if.then.i.i79
  %22 = load i32, i32* %20, align 4, !tbaa !23
  %add.i.i.i.i81 = add nsw i32 %22, -1
  store i32 %add.i.i.i.i81, i32* %20, align 4, !tbaa !23
  br label %invoke.cont.i.i85

invoke.cont.i.i85:                                ; preds = %if.else.i.i.i82, %if.then.i.i.i80
  %retval.0.i.i.i83 = phi i32 [ %21, %if.then.i.i.i80 ], [ %22, %if.else.i.i.i82 ]
  %cmp3.i.i84 = icmp slt i32 %retval.0.i.i.i83, 1
  br i1 %cmp3.i.i84, label %if.then4.i.i86, label %_ZNSsD2Ev.exit87

if.then4.i.i86:                                   ; preds = %invoke.cont.i.i85
  call void @_ZNSs4_Rep10_M_destroyERKSaIcE(%"struct.std::basic_string<char, std::char_traits<char>, std::allocator<char> >::_Rep"* nonnull %18, %"class.std::ios_base::Init"* nonnull dereferenceable(1) %ref.tmp.i74) #3
  br label %_ZNSsD2Ev.exit87

_ZNSsD2Ev.exit87:                                 ; preds = %if.then4.i.i86, %invoke.cont.i.i85, %_ZNSsD2Ev.exit
  call void @llvm.lifetime.end.p0i8(i64 1, i8* nonnull %19) #3
  call void @llvm.lifetime.end.p0i8(i64 1, i8* nonnull %3) #3
  %_M_p.i.i.i89 = getelementptr inbounds %"class.std::basic_string", %"class.std::basic_string"* %agg.tmp7, i64 0, i32 0, i32 0
  %23 = load i8*, i8** %_M_p.i.i.i89, align 8, !tbaa !17
  %arrayidx.i.i90 = getelementptr inbounds i8, i8* %23, i64 -24
  %24 = bitcast i8* %arrayidx.i.i90 to %"struct.std::basic_string<char, std::char_traits<char>, std::allocator<char> >::_Rep"*
  %25 = getelementptr inbounds %"class.std::ios_base::Init", %"class.std::ios_base::Init"* %ref.tmp.i88, i64 0, i32 0
  call void @llvm.lifetime.start.p0i8(i64 1, i8* nonnull %25) #3
  %cmp.i.i91 = icmp eq i8* %arrayidx.i.i90, bitcast ([0 x i64]* @_ZNSs4_Rep20_S_empty_rep_storageE to i8*)
  br i1 %cmp.i.i91, label %_ZNSsD2Ev.exit101, label %if.then.i.i93, !prof !22

if.then.i.i93:                                    ; preds = %_ZNSsD2Ev.exit87
  %_M_refcount.i.i92 = getelementptr inbounds i8, i8* %23, i64 -8
  %26 = bitcast i8* %_M_refcount.i.i92 to i32*
  br i1 icmp ne (i8* bitcast (i32 (i32*, void (i8*)*)* @__pthread_key_create to i8*), i8* null), label %if.then.i.i.i94, label %if.else.i.i.i96

if.then.i.i.i94:                                  ; preds = %if.then.i.i93
  %27 = atomicrmw volatile add i32* %26, i32 -1 acq_rel
  br label %invoke.cont.i.i99

if.else.i.i.i96:                                  ; preds = %if.then.i.i93
  %28 = load i32, i32* %26, align 4, !tbaa !23
  %add.i.i.i.i95 = add nsw i32 %28, -1
  store i32 %add.i.i.i.i95, i32* %26, align 4, !tbaa !23
  br label %invoke.cont.i.i99

invoke.cont.i.i99:                                ; preds = %if.else.i.i.i96, %if.then.i.i.i94
  %retval.0.i.i.i97 = phi i32 [ %27, %if.then.i.i.i94 ], [ %28, %if.else.i.i.i96 ]
  %cmp3.i.i98 = icmp slt i32 %retval.0.i.i.i97, 1
  br i1 %cmp3.i.i98, label %if.then4.i.i100, label %_ZNSsD2Ev.exit101

if.then4.i.i100:                                  ; preds = %invoke.cont.i.i99
  call void @_ZNSs4_Rep10_M_destroyERKSaIcE(%"struct.std::basic_string<char, std::char_traits<char>, std::allocator<char> >::_Rep"* nonnull %24, %"class.std::ios_base::Init"* nonnull dereferenceable(1) %ref.tmp.i88) #3
  br label %_ZNSsD2Ev.exit101

_ZNSsD2Ev.exit101:                                ; preds = %if.then4.i.i100, %invoke.cont.i.i99, %_ZNSsD2Ev.exit87
  call void @llvm.lifetime.end.p0i8(i64 1, i8* nonnull %25) #3
  call void @llvm.lifetime.end.p0i8(i64 1, i8* nonnull %2) #3
  %_M_p.i.i.i103 = getelementptr inbounds %"class.std::basic_string", %"class.std::basic_string"* %agg.tmp, i64 0, i32 0, i32 0
  %29 = load i8*, i8** %_M_p.i.i.i103, align 8, !tbaa !17
  %arrayidx.i.i104 = getelementptr inbounds i8, i8* %29, i64 -24
  %30 = bitcast i8* %arrayidx.i.i104 to %"struct.std::basic_string<char, std::char_traits<char>, std::allocator<char> >::_Rep"*
  %31 = getelementptr inbounds %"class.std::ios_base::Init", %"class.std::ios_base::Init"* %ref.tmp.i102, i64 0, i32 0
  call void @llvm.lifetime.start.p0i8(i64 1, i8* nonnull %31) #3
  %cmp.i.i105 = icmp eq i8* %arrayidx.i.i104, bitcast ([0 x i64]* @_ZNSs4_Rep20_S_empty_rep_storageE to i8*)
  br i1 %cmp.i.i105, label %_ZNSsD2Ev.exit115, label %if.then.i.i107, !prof !22

if.then.i.i107:                                   ; preds = %_ZNSsD2Ev.exit101
  %_M_refcount.i.i106 = getelementptr inbounds i8, i8* %29, i64 -8
  %32 = bitcast i8* %_M_refcount.i.i106 to i32*
  br i1 icmp ne (i8* bitcast (i32 (i32*, void (i8*)*)* @__pthread_key_create to i8*), i8* null), label %if.then.i.i.i108, label %if.else.i.i.i110

if.then.i.i.i108:                                 ; preds = %if.then.i.i107
  %33 = atomicrmw volatile add i32* %32, i32 -1 acq_rel
  br label %invoke.cont.i.i113

if.else.i.i.i110:                                 ; preds = %if.then.i.i107
  %34 = load i32, i32* %32, align 4, !tbaa !23
  %add.i.i.i.i109 = add nsw i32 %34, -1
  store i32 %add.i.i.i.i109, i32* %32, align 4, !tbaa !23
  br label %invoke.cont.i.i113

invoke.cont.i.i113:                               ; preds = %if.else.i.i.i110, %if.then.i.i.i108
  %retval.0.i.i.i111 = phi i32 [ %33, %if.then.i.i.i108 ], [ %34, %if.else.i.i.i110 ]
  %cmp3.i.i112 = icmp slt i32 %retval.0.i.i.i111, 1
  br i1 %cmp3.i.i112, label %if.then4.i.i114, label %_ZNSsD2Ev.exit115

if.then4.i.i114:                                  ; preds = %invoke.cont.i.i113
  call void @_ZNSs4_Rep10_M_destroyERKSaIcE(%"struct.std::basic_string<char, std::char_traits<char>, std::allocator<char> >::_Rep"* nonnull %30, %"class.std::ios_base::Init"* nonnull dereferenceable(1) %ref.tmp.i102) #3
  br label %_ZNSsD2Ev.exit115

_ZNSsD2Ev.exit115:                                ; preds = %if.then4.i.i114, %invoke.cont.i.i113, %_ZNSsD2Ev.exit101
  call void @llvm.lifetime.end.p0i8(i64 1, i8* nonnull %31) #3
  call void @llvm.lifetime.end.p0i8(i64 1, i8* nonnull %1) #3
  call void @llvm.lifetime.end.p0i8(i64 8, i8* nonnull %0) #3
  br label %if.end

lpad:                                             ; preds = %if.then
  %35 = landingpad { i8*, i32 }
          cleanup
  %36 = extractvalue { i8*, i32 } %35, 0
  %37 = extractvalue { i8*, i32 } %35, 1
  br label %ehcleanup27

lpad9:                                            ; preds = %invoke.cont
  %38 = landingpad { i8*, i32 }
          cleanup
  %39 = extractvalue { i8*, i32 } %38, 0
  %40 = extractvalue { i8*, i32 } %38, 1
  br label %ehcleanup24

lpad13:                                           ; preds = %invoke.cont10
  %41 = landingpad { i8*, i32 }
          cleanup
  %42 = extractvalue { i8*, i32 } %41, 0
  %43 = extractvalue { i8*, i32 } %41, 1
  br label %ehcleanup21

lpad15:                                           ; preds = %invoke.cont14
  %44 = landingpad { i8*, i32 }
          cleanup
  %45 = extractvalue { i8*, i32 } %44, 0
  %46 = extractvalue { i8*, i32 } %44, 1
  br label %ehcleanup

lpad17:                                           ; preds = %if.else.i, %if.then.i, %invoke.cont16
  %47 = landingpad { i8*, i32 }
          cleanup
  %48 = extractvalue { i8*, i32 } %47, 0
  %49 = extractvalue { i8*, i32 } %47, 1
  %50 = load i8*, i8** %_M_p.i.i.i.i, align 8, !tbaa !17
  %arrayidx.i.i121 = getelementptr inbounds i8, i8* %50, i64 -24
  %51 = bitcast i8* %arrayidx.i.i121 to %"struct.std::basic_string<char, std::char_traits<char>, std::allocator<char> >::_Rep"*
  %52 = getelementptr inbounds %"class.std::ios_base::Init", %"class.std::ios_base::Init"* %ref.tmp.i119, i64 0, i32 0
  call void @llvm.lifetime.start.p0i8(i64 1, i8* nonnull %52) #3
  %cmp.i.i122 = icmp eq i8* %arrayidx.i.i121, bitcast ([0 x i64]* @_ZNSs4_Rep20_S_empty_rep_storageE to i8*)
  br i1 %cmp.i.i122, label %_ZNSsD2Ev.exit132, label %if.then.i.i124, !prof !22

if.then.i.i124:                                   ; preds = %lpad17
  %_M_refcount.i.i123 = getelementptr inbounds i8, i8* %50, i64 -8
  %53 = bitcast i8* %_M_refcount.i.i123 to i32*
  br i1 icmp ne (i8* bitcast (i32 (i32*, void (i8*)*)* @__pthread_key_create to i8*), i8* null), label %if.then.i.i.i125, label %if.else.i.i.i127

if.then.i.i.i125:                                 ; preds = %if.then.i.i124
  %54 = atomicrmw volatile add i32* %53, i32 -1 acq_rel
  br label %invoke.cont.i.i130

if.else.i.i.i127:                                 ; preds = %if.then.i.i124
  %55 = load i32, i32* %53, align 4, !tbaa !23
  %add.i.i.i.i126 = add nsw i32 %55, -1
  store i32 %add.i.i.i.i126, i32* %53, align 4, !tbaa !23
  br label %invoke.cont.i.i130

invoke.cont.i.i130:                               ; preds = %if.else.i.i.i127, %if.then.i.i.i125
  %retval.0.i.i.i128 = phi i32 [ %54, %if.then.i.i.i125 ], [ %55, %if.else.i.i.i127 ]
  %cmp3.i.i129 = icmp slt i32 %retval.0.i.i.i128, 1
  br i1 %cmp3.i.i129, label %if.then4.i.i131, label %_ZNSsD2Ev.exit132

if.then4.i.i131:                                  ; preds = %invoke.cont.i.i130
  call void @_ZNSs4_Rep10_M_destroyERKSaIcE(%"struct.std::basic_string<char, std::char_traits<char>, std::allocator<char> >::_Rep"* nonnull %51, %"class.std::ios_base::Init"* nonnull dereferenceable(1) %ref.tmp.i119) #3
  br label %_ZNSsD2Ev.exit132

_ZNSsD2Ev.exit132:                                ; preds = %if.then4.i.i131, %invoke.cont.i.i130, %lpad17
  call void @llvm.lifetime.end.p0i8(i64 1, i8* nonnull %52) #3
  br label %ehcleanup

ehcleanup:                                        ; preds = %_ZNSsD2Ev.exit132, %lpad15
  %exn.slot.0 = phi i8* [ %48, %_ZNSsD2Ev.exit132 ], [ %45, %lpad15 ]
  %ehselector.slot.0 = phi i32 [ %49, %_ZNSsD2Ev.exit132 ], [ %46, %lpad15 ]
  %_M_p.i.i.i134 = getelementptr inbounds %"class.std::basic_string", %"class.std::basic_string"* %agg.tmp11, i64 0, i32 0, i32 0
  %56 = load i8*, i8** %_M_p.i.i.i134, align 8, !tbaa !17
  %arrayidx.i.i135 = getelementptr inbounds i8, i8* %56, i64 -24
  %57 = bitcast i8* %arrayidx.i.i135 to %"struct.std::basic_string<char, std::char_traits<char>, std::allocator<char> >::_Rep"*
  %58 = getelementptr inbounds %"class.std::ios_base::Init", %"class.std::ios_base::Init"* %ref.tmp.i133, i64 0, i32 0
  call void @llvm.lifetime.start.p0i8(i64 1, i8* nonnull %58) #3
  %cmp.i.i136 = icmp eq i8* %arrayidx.i.i135, bitcast ([0 x i64]* @_ZNSs4_Rep20_S_empty_rep_storageE to i8*)
  br i1 %cmp.i.i136, label %_ZNSsD2Ev.exit146, label %if.then.i.i138, !prof !22

if.then.i.i138:                                   ; preds = %ehcleanup
  %_M_refcount.i.i137 = getelementptr inbounds i8, i8* %56, i64 -8
  %59 = bitcast i8* %_M_refcount.i.i137 to i32*
  br i1 icmp ne (i8* bitcast (i32 (i32*, void (i8*)*)* @__pthread_key_create to i8*), i8* null), label %if.then.i.i.i139, label %if.else.i.i.i141

if.then.i.i.i139:                                 ; preds = %if.then.i.i138
  %60 = atomicrmw volatile add i32* %59, i32 -1 acq_rel
  br label %invoke.cont.i.i144

if.else.i.i.i141:                                 ; preds = %if.then.i.i138
  %61 = load i32, i32* %59, align 4, !tbaa !23
  %add.i.i.i.i140 = add nsw i32 %61, -1
  store i32 %add.i.i.i.i140, i32* %59, align 4, !tbaa !23
  br label %invoke.cont.i.i144

invoke.cont.i.i144:                               ; preds = %if.else.i.i.i141, %if.then.i.i.i139
  %retval.0.i.i.i142 = phi i32 [ %60, %if.then.i.i.i139 ], [ %61, %if.else.i.i.i141 ]
  %cmp3.i.i143 = icmp slt i32 %retval.0.i.i.i142, 1
  br i1 %cmp3.i.i143, label %if.then4.i.i145, label %_ZNSsD2Ev.exit146

if.then4.i.i145:                                  ; preds = %invoke.cont.i.i144
  call void @_ZNSs4_Rep10_M_destroyERKSaIcE(%"struct.std::basic_string<char, std::char_traits<char>, std::allocator<char> >::_Rep"* nonnull %57, %"class.std::ios_base::Init"* nonnull dereferenceable(1) %ref.tmp.i133) #3
  br label %_ZNSsD2Ev.exit146

_ZNSsD2Ev.exit146:                                ; preds = %if.then4.i.i145, %invoke.cont.i.i144, %ehcleanup
  call void @llvm.lifetime.end.p0i8(i64 1, i8* nonnull %58) #3
  br label %ehcleanup21

ehcleanup21:                                      ; preds = %_ZNSsD2Ev.exit146, %lpad13
  %exn.slot.1 = phi i8* [ %exn.slot.0, %_ZNSsD2Ev.exit146 ], [ %42, %lpad13 ]
  %ehselector.slot.1 = phi i32 [ %ehselector.slot.0, %_ZNSsD2Ev.exit146 ], [ %43, %lpad13 ]
  call void @llvm.lifetime.end.p0i8(i64 1, i8* nonnull %3) #3
  %_M_p.i.i.i148 = getelementptr inbounds %"class.std::basic_string", %"class.std::basic_string"* %agg.tmp7, i64 0, i32 0, i32 0
  %62 = load i8*, i8** %_M_p.i.i.i148, align 8, !tbaa !17
  %arrayidx.i.i149 = getelementptr inbounds i8, i8* %62, i64 -24
  %63 = bitcast i8* %arrayidx.i.i149 to %"struct.std::basic_string<char, std::char_traits<char>, std::allocator<char> >::_Rep"*
  %64 = getelementptr inbounds %"class.std::ios_base::Init", %"class.std::ios_base::Init"* %ref.tmp.i147, i64 0, i32 0
  call void @llvm.lifetime.start.p0i8(i64 1, i8* nonnull %64) #3
  %cmp.i.i150 = icmp eq i8* %arrayidx.i.i149, bitcast ([0 x i64]* @_ZNSs4_Rep20_S_empty_rep_storageE to i8*)
  br i1 %cmp.i.i150, label %_ZNSsD2Ev.exit160, label %if.then.i.i152, !prof !22

if.then.i.i152:                                   ; preds = %ehcleanup21
  %_M_refcount.i.i151 = getelementptr inbounds i8, i8* %62, i64 -8
  %65 = bitcast i8* %_M_refcount.i.i151 to i32*
  br i1 icmp ne (i8* bitcast (i32 (i32*, void (i8*)*)* @__pthread_key_create to i8*), i8* null), label %if.then.i.i.i153, label %if.else.i.i.i155

if.then.i.i.i153:                                 ; preds = %if.then.i.i152
  %66 = atomicrmw volatile add i32* %65, i32 -1 acq_rel
  br label %invoke.cont.i.i158

if.else.i.i.i155:                                 ; preds = %if.then.i.i152
  %67 = load i32, i32* %65, align 4, !tbaa !23
  %add.i.i.i.i154 = add nsw i32 %67, -1
  store i32 %add.i.i.i.i154, i32* %65, align 4, !tbaa !23
  br label %invoke.cont.i.i158

invoke.cont.i.i158:                               ; preds = %if.else.i.i.i155, %if.then.i.i.i153
  %retval.0.i.i.i156 = phi i32 [ %66, %if.then.i.i.i153 ], [ %67, %if.else.i.i.i155 ]
  %cmp3.i.i157 = icmp slt i32 %retval.0.i.i.i156, 1
  br i1 %cmp3.i.i157, label %if.then4.i.i159, label %_ZNSsD2Ev.exit160

if.then4.i.i159:                                  ; preds = %invoke.cont.i.i158
  call void @_ZNSs4_Rep10_M_destroyERKSaIcE(%"struct.std::basic_string<char, std::char_traits<char>, std::allocator<char> >::_Rep"* nonnull %63, %"class.std::ios_base::Init"* nonnull dereferenceable(1) %ref.tmp.i147) #3
  br label %_ZNSsD2Ev.exit160

_ZNSsD2Ev.exit160:                                ; preds = %if.then4.i.i159, %invoke.cont.i.i158, %ehcleanup21
  call void @llvm.lifetime.end.p0i8(i64 1, i8* nonnull %64) #3
  br label %ehcleanup24

ehcleanup24:                                      ; preds = %_ZNSsD2Ev.exit160, %lpad9
  %exn.slot.2 = phi i8* [ %exn.slot.1, %_ZNSsD2Ev.exit160 ], [ %39, %lpad9 ]
  %ehselector.slot.2 = phi i32 [ %ehselector.slot.1, %_ZNSsD2Ev.exit160 ], [ %40, %lpad9 ]
  call void @llvm.lifetime.end.p0i8(i64 1, i8* nonnull %2) #3
  %_M_p.i.i.i165 = getelementptr inbounds %"class.std::basic_string", %"class.std::basic_string"* %agg.tmp, i64 0, i32 0, i32 0
  %68 = load i8*, i8** %_M_p.i.i.i165, align 8, !tbaa !17
  %arrayidx.i.i166 = getelementptr inbounds i8, i8* %68, i64 -24
  %69 = bitcast i8* %arrayidx.i.i166 to %"struct.std::basic_string<char, std::char_traits<char>, std::allocator<char> >::_Rep"*
  %70 = getelementptr inbounds %"class.std::ios_base::Init", %"class.std::ios_base::Init"* %ref.tmp.i164, i64 0, i32 0
  call void @llvm.lifetime.start.p0i8(i64 1, i8* nonnull %70) #3
  %cmp.i.i167 = icmp eq i8* %arrayidx.i.i166, bitcast ([0 x i64]* @_ZNSs4_Rep20_S_empty_rep_storageE to i8*)
  br i1 %cmp.i.i167, label %_ZNSsD2Ev.exit177, label %if.then.i.i169, !prof !22

if.then.i.i169:                                   ; preds = %ehcleanup24
  %_M_refcount.i.i168 = getelementptr inbounds i8, i8* %68, i64 -8
  %71 = bitcast i8* %_M_refcount.i.i168 to i32*
  br i1 icmp ne (i8* bitcast (i32 (i32*, void (i8*)*)* @__pthread_key_create to i8*), i8* null), label %if.then.i.i.i170, label %if.else.i.i.i172

if.then.i.i.i170:                                 ; preds = %if.then.i.i169
  %72 = atomicrmw volatile add i32* %71, i32 -1 acq_rel
